	.file	"secp256k1.c"
# GNU C89 (GCC) version 6.3.1 20170306 (x86_64-pc-linux-gnu)
#	compiled by GNU C version 6.3.1 20170306, GMP version 6.1.2, MPFR version 3.1.5-p2, MPC version 1.0.3, isl version 0.15
# GGC heuristics: --param ggc-min-expand=100 --param ggc-min-heapsize=131072
# options passed:  -I . -I . -I ../include -MD secp256k1.d
# -MF .deps/libsecp256k1_la-secp256k1.Tpo -MP
# -MT libsecp256k1_la-secp256k1.lo -D HAVE_CONFIG_H -D SECP256K1_BUILD
# secp256k1.c -mtune=generic -march=x86-64 -O3 -Wpedantic -Wall -Wextra
# -Wcast-align -Wnested-externs -Wshadow -Wstrict-prototypes
# -Wno-unused-function -Wno-long-long -Wno-overlength-strings -std=c90
# -fverbose-asm -fvisibility=hidden
# options enabled:  -faggressive-loop-optimizations -falign-labels
# -fasynchronous-unwind-tables -fauto-inc-dec -fbranch-count-reg
# -fcaller-saves -fchkp-check-incomplete-type -fchkp-check-read
# -fchkp-check-write -fchkp-instrument-calls -fchkp-narrow-bounds
# -fchkp-optimize -fchkp-store-bounds -fchkp-use-static-bounds
# -fchkp-use-static-const-bounds -fchkp-use-wrappers
# -fcombine-stack-adjustments -fcommon -fcompare-elim -fcprop-registers
# -fcrossjumping -fcse-follow-jumps -fdefer-pop
# -fdelete-null-pointer-checks -fdevirtualize -fdevirtualize-speculatively
# -fdwarf2-cfi-asm -fearly-inlining -feliminate-unused-debug-types
# -fexpensive-optimizations -fforward-propagate -ffunction-cse -fgcse
# -fgcse-after-reload -fgcse-lm -fgnu-runtime -fgnu-unique
# -fguess-branch-probability -fhoist-adjacent-loads -fident -fif-conversion
# -fif-conversion2 -findirect-inlining -finline -finline-atomics
# -finline-functions -finline-functions-called-once
# -finline-small-functions -fipa-cp -fipa-cp-alignment -fipa-cp-clone
# -fipa-icf -fipa-icf-functions -fipa-icf-variables -fipa-profile
# -fipa-pure-const -fipa-ra -fipa-reference -fipa-sra -fira-hoist-pressure
# -fira-share-save-slots -fira-share-spill-slots
# -fisolate-erroneous-paths-dereference -fivopts -fkeep-static-consts
# -fleading-underscore -flifetime-dse -flra-remat -flto-odr-type-merging
# -fmath-errno -fmerge-constants -fmerge-debug-strings
# -fmove-loop-invariants -fomit-frame-pointer -foptimize-sibling-calls
# -foptimize-strlen -fpartial-inlining -fpeephole -fpeephole2 -fplt
# -fpredictive-commoning -fprefetch-loop-arrays -free -freg-struct-return
# -freorder-blocks -freorder-functions -frerun-cse-after-loop
# -fsched-critical-path-heuristic -fsched-dep-count-heuristic
# -fsched-group-heuristic -fsched-interblock -fsched-last-insn-heuristic
# -fsched-rank-heuristic -fsched-spec -fsched-spec-insn-heuristic
# -fsched-stalled-insns-dep -fschedule-fusion -fschedule-insns2
# -fsemantic-interposition -fshow-column -fshrink-wrap -fsigned-zeros
# -fsplit-ivs-in-unroller -fsplit-paths -fsplit-wide-types -fssa-backprop
# -fssa-phiopt -fstdarg-opt -fstrict-aliasing -fstrict-overflow
# -fstrict-volatile-bitfields -fsync-libcalls -fthread-jumps
# -ftoplevel-reorder -ftrapping-math -ftree-bit-ccp -ftree-builtin-call-dce
# -ftree-ccp -ftree-ch -ftree-coalesce-vars -ftree-copy-prop -ftree-cselim
# -ftree-dce -ftree-dominator-opts -ftree-dse -ftree-forwprop -ftree-fre
# -ftree-loop-distribute-patterns -ftree-loop-if-convert -ftree-loop-im
# -ftree-loop-ivcanon -ftree-loop-optimize -ftree-loop-vectorize
# -ftree-parallelize-loops= -ftree-partial-pre -ftree-phiprop -ftree-pre
# -ftree-pta -ftree-reassoc -ftree-scev-cprop -ftree-sink
# -ftree-slp-vectorize -ftree-slsr -ftree-sra -ftree-switch-conversion
# -ftree-tail-merge -ftree-ter -ftree-vrp -funit-at-a-time -funswitch-loops
# -funwind-tables -fverbose-asm -fzero-initialized-in-bss
# -m128bit-long-double -m64 -m80387 -malign-stringops
# -mavx256-split-unaligned-load -mavx256-split-unaligned-store
# -mfancy-math-387 -mfp-ret-in-387 -mfxsr -mglibc -mieee-fp
# -mlong-double-80 -mmmx -mno-sse4 -mpush-args -mred-zone -msse -msse2
# -mstv -mtls-direct-seg-refs -mvzeroupper

	.text
	.p2align 4,,15
	.type	secp256k1_fe_mul_inner, @function
secp256k1_fe_mul_inner:
.LFB66:
	.cfi_startproc
	pushq	%r15	#
	.cfi_def_cfa_offset 16
	.cfi_offset 15, -16
	pushq	%r14	#
	.cfi_def_cfa_offset 24
	.cfi_offset 14, -24
	pushq	%r13	#
	.cfi_def_cfa_offset 32
	.cfi_offset 13, -32
	pushq	%r12	#
	.cfi_def_cfa_offset 40
	.cfi_offset 12, -40
	pushq	%rbx	#
	.cfi_def_cfa_offset 48
	.cfi_offset 3, -48
	movq	%rdx, %rbx	# b, b
#APP
# 28 "field_5x52_asm_impl.h" 1
	movq 0(%rsi),%r10
movq 8(%rsi),%r11
movq 16(%rsi),%r12
movq 24(%rsi),%r13
movq 32(%rsi),%r14
movq 0(%rbx),%rax
mulq %r13
movq %rax,%rcx
movq %rdx,%r15
movq 8(%rbx),%rax
mulq %r12
addq %rax,%rcx
adcq %rdx,%r15
movq 16(%rbx),%rax
mulq %r11
addq %rax,%rcx
adcq %rdx,%r15
movq 24(%rbx),%rax
mulq %r10
addq %rax,%rcx
adcq %rdx,%r15
movq 32(%rbx),%rax
mulq %r14
movq %rax,%r8
movq %rdx,%r9
movq $0xfffffffffffff,%rdx
andq %rdx,%rax
movq $0x1000003d10,%rdx
mulq %rdx
addq %rax,%rcx
adcq %rdx,%r15
shrdq $52,%r9,%r8
movq %rcx,%rsi
movq $0xfffffffffffff,%rdx
andq %rdx,%rsi
movq %rsi,-24(%rsp)	# tmp1
shrdq $52,%r15,%rcx
xorq %r15,%r15
movq 0(%rbx),%rax
mulq %r14
addq %rax,%rcx
adcq %rdx,%r15
movq 8(%rbx),%rax
mulq %r13
addq %rax,%rcx
adcq %rdx,%r15
movq 16(%rbx),%rax
mulq %r12
addq %rax,%rcx
adcq %rdx,%r15
movq 24(%rbx),%rax
mulq %r11
addq %rax,%rcx
adcq %rdx,%r15
movq 32(%rbx),%rax
mulq %r10
addq %rax,%rcx
adcq %rdx,%r15
movq %r8,%rax
movq $0x1000003d10,%rdx
mulq %rdx
addq %rax,%rcx
adcq %rdx,%r15
movq %rcx,%rsi
movq $0xfffffffffffff,%rdx
andq %rdx,%rsi
shrdq $52,%r15,%rcx
xorq %r15,%r15
movq %rsi,%rax
shrq $48,%rax
movq %rax,-8(%rsp)	# tmp3
movq $0xffffffffffff,%rax
andq %rax,%rsi
movq %rsi,-16(%rsp)	# tmp2
movq 0(%rbx),%rax
mulq %r10
movq %rax,%r8
movq %rdx,%r9
movq 8(%rbx),%rax
mulq %r14
addq %rax,%rcx
adcq %rdx,%r15
movq 16(%rbx),%rax
mulq %r13
addq %rax,%rcx
adcq %rdx,%r15
movq 24(%rbx),%rax
mulq %r12
addq %rax,%rcx
adcq %rdx,%r15
movq 32(%rbx),%rax
mulq %r11
addq %rax,%rcx
adcq %rdx,%r15
movq %rcx,%rsi
movq $0xfffffffffffff,%rdx
andq %rdx,%rsi
shrdq $52,%r15,%rcx
xorq %r15,%r15
shlq $4,%rsi
movq -8(%rsp),%rax	# tmp3
orq %rax,%rsi
movq $0x1000003d1,%rax
mulq %rsi
addq %rax,%r8
adcq %rdx,%r9
movq %r8,%rax
movq $0xfffffffffffff,%rdx
andq %rdx,%rax
movq %rax,0(%rdi)
shrdq $52,%r9,%r8
xorq %r9,%r9
movq 0(%rbx),%rax
mulq %r11
addq %rax,%r8
adcq %rdx,%r9
movq 8(%rbx),%rax
mulq %r10
addq %rax,%r8
adcq %rdx,%r9
movq 16(%rbx),%rax
mulq %r14
addq %rax,%rcx
adcq %rdx,%r15
movq 24(%rbx),%rax
mulq %r13
addq %rax,%rcx
adcq %rdx,%r15
movq 32(%rbx),%rax
mulq %r12
addq %rax,%rcx
adcq %rdx,%r15
movq %rcx,%rax
movq $0xfffffffffffff,%rdx
andq %rdx,%rax
movq $0x1000003d10,%rdx
mulq %rdx
addq %rax,%r8
adcq %rdx,%r9
shrdq $52,%r15,%rcx
xorq %r15,%r15
movq %r8,%rax
movq $0xfffffffffffff,%rdx
andq %rdx,%rax
movq %rax,8(%rdi)
shrdq $52,%r9,%r8
xorq %r9,%r9
movq 0(%rbx),%rax
mulq %r12
addq %rax,%r8
adcq %rdx,%r9
movq 8(%rbx),%rax
mulq %r11
addq %rax,%r8
adcq %rdx,%r9
movq 16(%rbx),%rax
mulq %r10
addq %rax,%r8
adcq %rdx,%r9
movq -16(%rsp),%rsi	# tmp2
movq -24(%rsp),%r10	# tmp1
movq 24(%rbx),%rax
mulq %r14
addq %rax,%rcx
adcq %rdx,%r15
movq 32(%rbx),%rax
mulq %r13
addq %rax,%rcx
adcq %rdx,%r15
movq %rcx,%rax
movq $0xfffffffffffff,%rdx
andq %rdx,%rax
movq $0x1000003d10,%rdx
mulq %rdx
addq %rax,%r8
adcq %rdx,%r9
shrdq $52,%r15,%rcx
movq %r8,%rax
movq $0xfffffffffffff,%rdx
andq %rdx,%rax
movq %rax,16(%rdi)
shrdq $52,%r9,%r8
xorq %r9,%r9
addq %r10,%r8
movq %rcx,%rax
movq $0x1000003d10,%rdx
mulq %rdx
addq %rax,%r8
adcq %rdx,%r9
movq %r8,%rax
movq $0xfffffffffffff,%rdx
andq %rdx,%rax
movq %rax,24(%rdi)
shrdq $52,%r9,%r8
addq %rsi,%r8
movq %r8,32(%rdi)

# 0 "" 2
#NO_APP
	popq	%rbx	#
	.cfi_def_cfa_offset 40
	popq	%r12	#
	.cfi_def_cfa_offset 32
	popq	%r13	#
	.cfi_def_cfa_offset 24
	popq	%r14	#
	.cfi_def_cfa_offset 16
	popq	%r15	#
	.cfi_def_cfa_offset 8
	ret
	.cfi_endproc
.LFE66:
	.size	secp256k1_fe_mul_inner, .-secp256k1_fe_mul_inner
	.p2align 4,,15
	.type	secp256k1_fe_sqr_inner, @function
secp256k1_fe_sqr_inner:
.LFB67:
	.cfi_startproc
	pushq	%r15	#
	.cfi_def_cfa_offset 16
	.cfi_offset 15, -16
	pushq	%r14	#
	.cfi_def_cfa_offset 24
	.cfi_offset 14, -24
	pushq	%r13	#
	.cfi_def_cfa_offset 32
	.cfi_offset 13, -32
	pushq	%r12	#
	.cfi_def_cfa_offset 40
	.cfi_offset 12, -40
	pushq	%rbx	#
	.cfi_def_cfa_offset 48
	.cfi_offset 3, -48
#APP
# 298 "field_5x52_asm_impl.h" 1
	movq 0(%rsi),%r10
movq 8(%rsi),%r11
movq 16(%rsi),%r12
movq 24(%rsi),%r13
movq 32(%rsi),%r14
movq $0xfffffffffffff,%r15
leaq (%r10,%r10,1),%rax
mulq %r13
movq %rax,%rbx
movq %rdx,%rcx
leaq (%r11,%r11,1),%rax
mulq %r12
addq %rax,%rbx
adcq %rdx,%rcx
movq %r14,%rax
mulq %r14
movq %rax,%r8
movq %rdx,%r9
andq %r15,%rax
movq $0x1000003d10,%rdx
mulq %rdx
addq %rax,%rbx
adcq %rdx,%rcx
shrdq $52,%r9,%r8
movq %rbx,%rsi
andq %r15,%rsi
movq %rsi,-24(%rsp)	# tmp1
shrdq $52,%rcx,%rbx
xorq %rcx,%rcx
addq %r14,%r14
movq %r10,%rax
mulq %r14
addq %rax,%rbx
adcq %rdx,%rcx
leaq (%r11,%r11,1),%rax
mulq %r13
addq %rax,%rbx
adcq %rdx,%rcx
movq %r12,%rax
mulq %r12
addq %rax,%rbx
adcq %rdx,%rcx
movq %r8,%rax
movq $0x1000003d10,%rdx
mulq %rdx
addq %rax,%rbx
adcq %rdx,%rcx
movq %rbx,%rsi
andq %r15,%rsi
shrdq $52,%rcx,%rbx
xorq %rcx,%rcx
movq %rsi,%rax
shrq $48,%rax
movq %rax,-8(%rsp)	# tmp3
movq $0xffffffffffff,%rax
andq %rax,%rsi
movq %rsi,-16(%rsp)	# tmp2
movq %r10,%rax
mulq %r10
movq %rax,%r8
movq %rdx,%r9
movq %r11,%rax
mulq %r14
addq %rax,%rbx
adcq %rdx,%rcx
leaq (%r12,%r12,1),%rax
mulq %r13
addq %rax,%rbx
adcq %rdx,%rcx
movq %rbx,%rsi
andq %r15,%rsi
shrdq $52,%rcx,%rbx
xorq %rcx,%rcx
shlq $4,%rsi
movq -8(%rsp),%rax	# tmp3
orq %rax,%rsi
movq $0x1000003d1,%rax
mulq %rsi
addq %rax,%r8
adcq %rdx,%r9
movq %r8,%rax
andq %r15,%rax
movq %rax,0(%rdi)
shrdq $52,%r9,%r8
xorq %r9,%r9
addq %r10,%r10
movq %r10,%rax
mulq %r11
addq %rax,%r8
adcq %rdx,%r9
movq %r12,%rax
mulq %r14
addq %rax,%rbx
adcq %rdx,%rcx
movq %r13,%rax
mulq %r13
addq %rax,%rbx
adcq %rdx,%rcx
movq %rbx,%rax
andq %r15,%rax
movq $0x1000003d10,%rdx
mulq %rdx
addq %rax,%r8
adcq %rdx,%r9
shrdq $52,%rcx,%rbx
xorq %rcx,%rcx
movq %r8,%rax
andq %r15,%rax
movq %rax,8(%rdi)
shrdq $52,%r9,%r8
xorq %r9,%r9
movq %r10,%rax
mulq %r12
addq %rax,%r8
adcq %rdx,%r9
movq -16(%rsp),%rsi	# tmp2
movq -24(%rsp),%r10	# tmp1
movq %r11,%rax
mulq %r11
addq %rax,%r8
adcq %rdx,%r9
movq %r13,%rax
mulq %r14
addq %rax,%rbx
adcq %rdx,%rcx
movq %rbx,%rax
andq %r15,%rax
movq $0x1000003d10,%rdx
mulq %rdx
addq %rax,%r8
adcq %rdx,%r9
shrdq $52,%rcx,%rbx
movq %r8,%rax
andq %r15,%rax
movq %rax,16(%rdi)
shrdq $52,%r9,%r8
xorq %r9,%r9
addq %r10,%r8
movq %rbx,%rax
movq $0x1000003d10,%rdx
mulq %rdx
addq %rax,%r8
adcq %rdx,%r9
movq %r8,%rax
andq %r15,%rax
movq %rax,24(%rdi)
shrdq $52,%r9,%r8
addq %rsi,%r8
movq %r8,32(%rdi)

# 0 "" 2
#NO_APP
	popq	%rbx	#
	.cfi_def_cfa_offset 40
	popq	%r12	#
	.cfi_def_cfa_offset 32
	popq	%r13	#
	.cfi_def_cfa_offset 24
	popq	%r14	#
	.cfi_def_cfa_offset 16
	popq	%r15	#
	.cfi_def_cfa_offset 8
	ret
	.cfi_endproc
.LFE67:
	.size	secp256k1_fe_sqr_inner, .-secp256k1_fe_sqr_inner
	.p2align 4,,15
	.type	secp256k1_fe_normalize, @function
secp256k1_fe_normalize:
.LFB68:
	.cfi_startproc
	movq	32(%rdi), %rax	# r_2(D)->n, t4
	movabsq	$4294968273, %r10	#, tmp137
	pushq	%rbp	#
	.cfi_def_cfa_offset 16
	.cfi_offset 6, -16
	movabsq	$4503599627370495, %rcx	#, tmp139
	movabsq	$281474976710655, %rsi	#, tmp134
	pushq	%rbx	#
	.cfi_def_cfa_offset 24
	.cfi_offset 3, -24
	movq	%rax, %r9	# t4, t4
	shrq	$48, %rax	#, x
	imulq	%r10, %rax	# tmp137, tmp136
	andq	%rsi, %r9	# tmp134, t4
	addq	(%rdi), %rax	# r_2(D)->n, t0
	movq	%rax, %r8	# t0, tmp138
	andq	%rcx, %rax	# tmp139, t0
	shrq	$52, %r8	#, tmp138
	addq	8(%rdi), %r8	# r_2(D)->n, t1
	movq	%r8, %rdx	# t1, tmp140
	andq	%rcx, %r8	# tmp139, t1
	shrq	$52, %rdx	#, tmp140
	addq	16(%rdi), %rdx	# r_2(D)->n, t2
	movq	%rdx, %rbp	# t2, tmp142
	movq	%rdx, %rbx	# t2, t2
	andq	%r8, %rdx	# t1, tmp146
	shrq	$52, %rbp	#, tmp142
	addq	24(%rdi), %rbp	# r_2(D)->n, t3
	andq	%rcx, %rbx	# tmp139, t2
	movq	%rbp, %r11	# t3, tmp144
	andq	%rbp, %rdx	# t3, m
	shrq	$52, %r11	#, tmp144
	addq	%r11, %r9	# tmp144, t4
	movq	%rbp, %r11	# t3, t3
	movabsq	$4503595332402222, %rbp	#, tmp152
	andq	%rcx, %r11	# tmp139, t3
	cmpq	%rcx, %rdx	# tmp139, m
	sete	%dl	#, tmp150
	cmpq	%rbp, %rax	# tmp152, t0
	seta	%bpl	#, tmp153
	andl	%edx, %ebp	# tmp150, tmp154
	xorl	%edx, %edx	# tmp158
	cmpq	%rsi, %r9	# tmp134, t4
	sete	%dl	#, tmp158
	andq	%rbp, %rdx	# tmp154, tmp159
	movq	%r9, %rbp	# t4, tmp160
	shrq	$48, %rbp	#, tmp160
	orq	%rbp, %rdx	# tmp160, x
	imulq	%r10, %rdx	# tmp137, _33
	addq	%rdx, %rax	# _33, t0
	movq	%rax, %rdx	# t0, tmp163
	andq	%rcx, %rax	# tmp139, tmp168
	shrq	$52, %rdx	#, tmp163
	movq	%rax, (%rdi)	# tmp168, r_2(D)->n
	addq	%rdx, %r8	# tmp163, t1
	movq	%r8, %rdx	# t1, tmp164
	andq	%rcx, %r8	# tmp139, tmp170
	shrq	$52, %rdx	#, tmp164
	movq	%r8, 8(%rdi)	# tmp170, r_2(D)->n
	addq	%rdx, %rbx	# tmp164, t2
	movq	%rbx, %rdx	# t2, tmp165
	andq	%rcx, %rbx	# tmp139, tmp172
	shrq	$52, %rdx	#, tmp165
	movq	%rbx, 16(%rdi)	# tmp172, r_2(D)->n
	addq	%rdx, %r11	# tmp165, t3
	movq	%r11, %rdx	# t3, tmp166
	andq	%rcx, %r11	# tmp139, tmp174
	shrq	$52, %rdx	#, tmp166
	movq	%r11, 24(%rdi)	# tmp174, r_2(D)->n
	addq	%rdx, %r9	# tmp166, t4
	andq	%r9, %rsi	# t4, tmp176
	popq	%rbx	#
	.cfi_def_cfa_offset 16
	movq	%rsi, 32(%rdi)	# tmp176, r_2(D)->n
	popq	%rbp	#
	.cfi_def_cfa_offset 8
	ret
	.cfi_endproc
.LFE68:
	.size	secp256k1_fe_normalize, .-secp256k1_fe_normalize
	.p2align 4,,15
	.type	secp256k1_fe_normalize_weak, @function
secp256k1_fe_normalize_weak:
.LFB69:
	.cfi_startproc
	movq	32(%rdi), %rax	# r_2(D)->n, t4
	movabsq	$281474976710655, %rdx	#, tmp109
	movabsq	$4503599627370495, %rcx	#, tmp116
	andq	%rax, %rdx	# t4, tmp109
	shrq	$48, %rax	#, x
	movq	%rdx, %r8	# tmp109, t4
	movabsq	$4294968273, %rdx	#, tmp112
	imulq	%rdx, %rax	# tmp112, tmp111
	addq	(%rdi), %rax	# r_2(D)->n, t0
	movq	%rax, %r9	# t0, tmp113
	andq	%rcx, %rax	# tmp116, tmp117
	shrq	$52, %r9	#, tmp113
	addq	8(%rdi), %r9	# r_2(D)->n, t1
	movq	%rax, (%rdi)	# tmp117, r_2(D)->n
	movq	%r9, %rsi	# t1, tmp114
	andq	%rcx, %r9	# tmp116, tmp119
	shrq	$52, %rsi	#, tmp114
	addq	16(%rdi), %rsi	# r_2(D)->n, t2
	movq	%r9, 8(%rdi)	# tmp119, r_2(D)->n
	movq	%rsi, %rdx	# t2, tmp115
	andq	%rcx, %rsi	# tmp116, tmp121
	shrq	$52, %rdx	#, tmp115
	addq	24(%rdi), %rdx	# r_2(D)->n, t3
	movq	%rsi, 16(%rdi)	# tmp121, r_2(D)->n
	andq	%rdx, %rcx	# t3, tmp123
	shrq	$52, %rdx	#, tmp124
	addq	%r8, %rdx	# t4, tmp125
	movq	%rcx, 24(%rdi)	# tmp123, r_2(D)->n
	movq	%rdx, 32(%rdi)	# tmp125, r_2(D)->n
	ret
	.cfi_endproc
.LFE69:
	.size	secp256k1_fe_normalize_weak, .-secp256k1_fe_normalize_weak
	.p2align 4,,15
	.type	secp256k1_fe_normalize_var, @function
secp256k1_fe_normalize_var:
.LFB70:
	.cfi_startproc
	movq	32(%rdi), %rax	# r_7(D)->n, t4
	movabsq	$4294968273, %r11	#, tmp131
	movabsq	$4503599627370495, %rsi	#, tmp133
	pushq	%rbp	#
	.cfi_def_cfa_offset 16
	.cfi_offset 6, -16
	movabsq	$281474976710655, %r10	#, tmp128
	pushq	%rbx	#
	.cfi_def_cfa_offset 24
	.cfi_offset 3, -24
	movq	%rax, %r8	# t4, t4
	shrq	$48, %rax	#, x
	imulq	%r11, %rax	# tmp131, tmp130
	andq	%r10, %r8	# tmp128, t4
	addq	(%rdi), %rax	# r_7(D)->n, t0
	movq	%rax, %rcx	# t0, tmp132
	andq	%rsi, %rax	# tmp133, t0
	shrq	$52, %rcx	#, tmp132
	addq	8(%rdi), %rcx	# r_7(D)->n, t1
	movq	%rcx, %rdx	# t1, tmp134
	andq	%rsi, %rcx	# tmp133, t1
	shrq	$52, %rdx	#, tmp134
	addq	16(%rdi), %rdx	# r_7(D)->n, t2
	movq	%rdx, %r9	# t2, tmp136
	movq	%rdx, %rbx	# t2, t2
	andq	%rcx, %rdx	# t1, tmp140
	shrq	$52, %r9	#, tmp136
	addq	24(%rdi), %r9	# r_7(D)->n, t3
	andq	%rsi, %rbx	# tmp133, t2
	movq	%r9, %rbp	# t3, tmp138
	andq	%r9, %rdx	# t3, m
	shrq	$52, %rbp	#, tmp138
	addq	%rbp, %r8	# tmp138, t4
	movq	%r9, %rbp	# t3, t3
	movabsq	$4503595332402222, %r9	#, tmp146
	andq	%rsi, %rbp	# tmp133, t3
	cmpq	%rsi, %rdx	# tmp133, m
	sete	%dl	#, tmp144
	cmpq	%r9, %rax	# tmp146, t0
	seta	%r9b	#, tmp147
	andl	%edx, %r9d	# tmp144, tmp148
	xorl	%edx, %edx	# tmp152
	cmpq	%r10, %r8	# tmp128, t4
	sete	%dl	#, tmp152
	andq	%r9, %rdx	# tmp148, tmp153
	movq	%r8, %r9	# t4, tmp154
	shrq	$48, %r9	#, tmp154
	orq	%r9, %rdx	# tmp154, tmp153
	je	.L9	#,
	addq	%r11, %rax	# tmp131, t0
	movq	%rax, %rdx	# t0, tmp157
	andq	%rsi, %rax	# tmp133, t0
	shrq	$52, %rdx	#, tmp157
	addq	%rdx, %rcx	# tmp157, t1
	movq	%rcx, %rdx	# t1, tmp159
	andq	%rsi, %rcx	# tmp133, t1
	shrq	$52, %rdx	#, tmp159
	addq	%rdx, %rbx	# tmp159, t2
	movq	%rbx, %rdx	# t2, tmp161
	andq	%rsi, %rbx	# tmp133, t2
	shrq	$52, %rdx	#, tmp161
	addq	%rdx, %rbp	# tmp161, t3
	movq	%rbp, %rdx	# t3, tmp163
	andq	%rsi, %rbp	# tmp133, t3
	shrq	$52, %rdx	#, tmp163
	addq	%rdx, %r8	# tmp163, t4
	andq	%r10, %r8	# tmp128, t4
.L9:
	movq	%rbx, 16(%rdi)	# t2, r_7(D)->n
	movq	%rbp, 24(%rdi)	# t3, r_7(D)->n
	popq	%rbx	#
	.cfi_def_cfa_offset 16
	movq	%rax, (%rdi)	# t0, r_7(D)->n
	movq	%rcx, 8(%rdi)	# t1, r_7(D)->n
	movq	%r8, 32(%rdi)	# t4, r_7(D)->n
	popq	%rbp	#
	.cfi_def_cfa_offset 8
	ret
	.cfi_endproc
.LFE70:
	.size	secp256k1_fe_normalize_var, .-secp256k1_fe_normalize_var
	.p2align 4,,15
	.type	secp256k1_fe_normalizes_to_zero_var, @function
secp256k1_fe_normalizes_to_zero_var:
.LFB72:
	.cfi_startproc
	movq	32(%rdi), %rsi	# r_3(D)->n, t4
	movabsq	$4294968273, %rax	#, tmp126
	movq	%rsi, %rdx	# t4, x
	shrq	$48, %rdx	#, x
	imulq	%rax, %rdx	# tmp126, tmp125
	movabsq	$4503599627370495, %rax	#, tmp127
	addq	(%rdi), %rdx	# r_3(D)->n, t0
	andq	%rdx, %rax	# t0, z0
	je	.L19	#,
	movabsq	$4503595332402223, %r8	#, tmp131
	xorl	%ecx, %ecx	# _40
	cmpq	%r8, %rax	# tmp131, z0
	je	.L19	#,
	movzbl	%cl, %eax	# _40, _40
	ret
	.p2align 4,,10
	.p2align 3
.L19:
	movq	%rdx, %r9	# t0, tmp134
	movabsq	$281474976710655, %rcx	#, tmp133
	movabsq	$4294968272, %r10	#, tmp143
	shrq	$52, %r9	#, tmp134
	addq	8(%rdi), %r9	# r_3(D)->n, t1
	andq	%rcx, %rsi	# tmp133, t4
	xorq	%r10, %rax	# tmp143, z1
	movq	%r9, %r8	# t1, tmp135
	orq	%r9, %rdx	# t1, tmp138
	andq	%r9, %rax	# t1, tmp144
	shrq	$52, %r8	#, tmp135
	addq	16(%rdi), %r8	# r_3(D)->n, t2
	movq	%r8, %rcx	# t2, tmp136
	andq	%r8, %rax	# t2, _41
	orq	%r8, %rdx	# t2, tmp139
	shrq	$52, %rcx	#, tmp136
	addq	24(%rdi), %rcx	# r_3(D)->n, t3
	movq	%rcx, %rdi	# t3, tmp137
	orq	%rcx, %rdx	# t3, tmp140
	andq	%rax, %rcx	# _41, z1
	shrq	$52, %rdi	#, tmp137
	movabsq	$4222124650659840, %rax	#, tmp146
	addq	%rdi, %rsi	# tmp137, t4
	movabsq	$4503599627370495, %rdi	#, tmp141
	xorq	%rsi, %rax	# t4, tmp145
	andq	%rdi, %rdx	# tmp141, z0
	andq	%rcx, %rax	# z1, z1
	cmpq	%rdi, %rax	# tmp141, z1
	sete	%cl	#, tmp150
	orq	%rdx, %rsi	# z0, t4
	sete	%al	#, tmp153
	orl	%eax, %ecx	# tmp153, _40
	movzbl	%cl, %eax	# _40, _40
	ret
	.cfi_endproc
.LFE72:
	.size	secp256k1_fe_normalizes_to_zero_var, .-secp256k1_fe_normalizes_to_zero_var
	.p2align 4,,15
	.type	secp256k1_fe_set_b32, @function
secp256k1_fe_set_b32:
.LFB78:
	.cfi_startproc
	pushq	%rbp	#
	.cfi_def_cfa_offset 16
	.cfi_offset 6, -16
	movq	$0, 32(%rdi)	#, r_7(D)->n
	movl	$1, %r10d	#, ivtmp.248
	pushq	%rbx	#
	.cfi_def_cfa_offset 24
	.cfi_offset 3, -24
	movq	$0, 24(%rdi)	#, r_7(D)->n
	leaq	31(%rsi), %rbx	#, ivtmp.244
	movq	$0, 16(%rdi)	#, r_7(D)->n
	movq	$0, 8(%rdi)	#, r_7(D)->n
	xorl	%r9d, %r9d	# ivtmp.240
	movq	$0, (%rdi)	#, r_7(D)->n
	xorl	%ebp, %ebp	# pretmp_27
	movl	$1321528399, %r11d	#, tmp303
	jmp	.L25	#
	.p2align 4,,10
	.p2align 3
.L30:
	movl	%r9d, %eax	# ivtmp.240, tmp358
	imull	%r11d	# tmp303
	movl	%r9d, %eax	# ivtmp.240, tmp343
	sarl	$31, %eax	#, tmp343
	sarl	$2, %edx	#, tmp342
	subl	%eax, %edx	# tmp343, tmp339
	movslq	%edx, %rdx	# tmp339, tmp344
	movq	(%rdi,%rdx,8), %rbp	# r_7(D)->n, pretmp_27
.L25:
	movl	%r9d, %eax	# ivtmp.240, tmp354
	leal	0(,%r9,4), %ecx	#, tmp310
	movzbl	(%rbx), %r8d	# MEM[base: _55, offset: 0B], MEM[base: _55, offset: 0B]
	imull	%r11d	# tmp303
	movl	%r9d, %eax	# ivtmp.240, tmp305
	addl	$2, %r9d	#, ivtmp.240
	sarl	$31, %eax	#, tmp305
	subq	$1, %rbx	#, ivtmp.244
	sarl	$2, %edx	#, tmp304
	andl	$15, %r8d	#, tmp309
	subl	%eax, %edx	# tmp305, limb
	movl	%ecx, %eax	# tmp310, tmp355
	movslq	%edx, %rsi	# limb, limb
	imull	%r11d	# tmp303
	movl	%ecx, %eax	# tmp310, tmp315
	sarl	$31, %eax	#, tmp315
	sarl	$4, %edx	#, tmp314
	subl	%eax, %edx	# tmp315, tmp311
	movl	%r10d, %eax	# ivtmp.248, tmp356
	imull	$52, %edx, %edx	#, tmp311, tmp316
	subl	%edx, %ecx	# tmp316, shift
	imull	%r11d	# tmp303
	salq	%cl, %r8	# shift, tmp318
	movl	%r10d, %eax	# ivtmp.248, tmp324
	leal	0(,%r10,4), %ecx	#, tmp330
	sarl	$31, %eax	#, tmp324
	orq	%rbp, %r8	# pretmp_27, tmp319
	movq	%r8, (%rdi,%rsi,8)	# tmp319, r_7(D)->n
	movzbl	1(%rbx), %r8d	# MEM[base: _55, offset: 0B], tmp327
	addl	$2, %r10d	#, ivtmp.248
	sarl	$2, %edx	#, tmp323
	subl	%eax, %edx	# tmp324, limb
	movl	%ecx, %eax	# tmp330, tmp357
	movslq	%edx, %rsi	# limb, limb
	imull	%r11d	# tmp303
	movl	%ecx, %eax	# tmp330, tmp335
	shrb	$4, %r8b	#, tmp327
	sarl	$31, %eax	#, tmp335
	movzbl	%r8b, %r8d	# tmp327, tmp329
	sarl	$4, %edx	#, tmp334
	subl	%eax, %edx	# tmp335, tmp331
	imull	$52, %edx, %edx	#, tmp331, tmp336
	subl	%edx, %ecx	# tmp336, shift
	salq	%cl, %r8	# shift, tmp338
	orq	%r8, (%rdi,%rsi,8)	# tmp338, MEM[(struct secp256k1_fe *)_52]
	cmpl	$64, %r9d	#, ivtmp.240
	jne	.L30	#,
	movabsq	$281474976710655, %rdx	#, tmp345
	cmpq	%rdx, 32(%rdi)	# tmp345, r_7(D)->n
	movl	$1, %eax	#, <retval>
	je	.L31	#,
.L23:
	popq	%rbx	#
	.cfi_remember_state
	.cfi_def_cfa_offset 16
	popq	%rbp	#
	.cfi_def_cfa_offset 8
	ret
.L31:
	.cfi_restore_state
	movq	24(%rdi), %rdx	# r_7(D)->n, r_7(D)->n
	andq	16(%rdi), %rdx	# r_7(D)->n, tmp346
	movabsq	$4503599627370495, %rcx	#, tmp349
	andq	8(%rdi), %rdx	# r_7(D)->n, tmp348
	cmpq	%rcx, %rdx	# tmp349, tmp348
	jne	.L23	#,
	movabsq	$4503595332402222, %rax	#, tmp351
	cmpq	%rax, (%rdi)	# tmp351, r_7(D)->n
	setbe	%al	#, <retval>
	movzbl	%al, %eax	# <retval>, <retval>
	jmp	.L23	#
	.cfi_endproc
.LFE78:
	.size	secp256k1_fe_set_b32, .-secp256k1_fe_set_b32
	.p2align 4,,15
	.type	secp256k1_scalar_add, @function
secp256k1_scalar_add:
.LFB101:
	.cfi_startproc
	pushq	%r15	#
	.cfi_def_cfa_offset 16
	.cfi_offset 15, -16
	pushq	%r14	#
	.cfi_def_cfa_offset 24
	.cfi_offset 14, -24
	movq	%rdi, %r8	# r, r
	pushq	%r13	#
	.cfi_def_cfa_offset 32
	.cfi_offset 13, -32
	pushq	%r12	#
	.cfi_def_cfa_offset 40
	.cfi_offset 12, -40
	movq	%rdx, %rdi	# b, b
	pushq	%rbx	#
	.cfi_def_cfa_offset 48
	.cfi_offset 3, -48
	movq	(%rdx), %rax	# b_5(D)->d, b_5(D)->d
	xorl	%ebx, %ebx	# a_2(D)->d
	movq	(%rsi), %rcx	# a_2(D)->d, a_2(D)->d
	movq	8(%rdi), %r9	# b_5(D)->d, b_5(D)->d
	xorl	%edx, %edx	# b_5(D)->d
	movq	16(%rdi), %r11	# b_5(D)->d, b_5(D)->d
	addq	%rax, %rcx	# b_5(D)->d, t
	movq	8(%rsi), %rax	# a_2(D)->d, a_2(D)->d
	adcq	%rdx, %rbx	# b_5(D)->d, t
	xorl	%r12d, %r12d	# t
	xorl	%edx, %edx	# a_2(D)->d
	xorl	%r10d, %r10d	# b_5(D)->d
	addq	%rax, %r9	# a_2(D)->d, tmp176
	movq	16(%rsi), %rax	# a_2(D)->d, a_2(D)->d
	adcq	%rdx, %r10	# a_2(D)->d,
	addq	%rbx, %r9	# t, t
	adcq	%r12, %r10	# t, t
	xorl	%r12d, %r12d	# b_5(D)->d
	xorl	%r14d, %r14d	# t
	movq	%r10, %r13	# t, t
	xorl	%edx, %edx	# a_2(D)->d
	addq	%r11, %rax	# b_5(D)->d, tmp181
	adcq	%r12, %rdx	# b_5(D)->d,
	movq	24(%rdi), %r11	# b_5(D)->d, b_5(D)->d
	addq	%rax, %r13	# tmp181, t
	movq	24(%rsi), %rax	# a_2(D)->d, a_2(D)->d
	adcq	%rdx, %r14	#, t
	xorl	%edx, %edx	# t
	movq	%rdx, %r15	# t, t
	xorl	%r12d, %r12d	# b_5(D)->d
	xorl	%edx, %edx	# a_2(D)->d
	movabsq	$-4994812053365940165, %rdi	#, tmp192
	addq	%r11, %rax	# b_5(D)->d, tmp186
	adcq	%r12, %rdx	# b_5(D)->d,
	addq	%r14, %rax	# t, t
	adcq	%r15, %rdx	# t, t
	cmpq	$-1, %rax	#, t
	setne	%r14b	#, tmp188
	cmpq	$-3, %r13	#, _26
	setbe	%sil	#, tmp190
	orl	%r14d, %esi	# tmp188, _65
	cmpq	%rdi, %r9	# tmp192, _18
	movabsq	$-4624529908474429120, %rdi	#, tmp195
	seta	%r14b	#, tmp193
	cmpq	%rdi, %rcx	# tmp195, t
	seta	%dil	#, tmp196
	orl	%edi, %r14d	# tmp196, tmp197
	movabsq	$-4994812053365940166, %rdi	#, tmp200
	cmpq	%rdi, %r9	# tmp200, _18
	movzbl	%r14b, %r14d	# tmp197, tmp198
	setbe	%dil	#, tmp201
	orl	%esi, %edi	# _65, tmp202
	movzbl	%sil, %esi	# _65, no
	movzbl	%dil, %edi	# tmp202, no
	notl	%esi	# tmp209
	notl	%edi	# tmp204
	andl	%edi, %r14d	# tmp204, tmp205
	xorl	%edi, %edi	# tmp206
	cmpq	$-1, %r13	#, _26
	sete	%dil	#, tmp206
	xorl	%r12d, %r12d	#
	andl	%edi, %esi	# tmp206, tmp210
	xorl	%edi, %edi	# t
	orl	%esi, %r14d	# tmp210, yes
	movabsq	$4624529908474429119, %rsi	#, tmp214
	addl	%r14d, %edx	# yes,
	imulq	%rdx, %rsi	# _41, tmp214
	movq	%rsi, %r11	# tmp214, tmp215
	movabsq	$4994812053365940164, %rsi	#, tmp218
	addq	%rcx, %r11	# t, tmp215
	adcq	%rdi, %r12	# t,
	movq	%r11, -16(%rsp)	# t, %sfp
	xorl	%edi, %edi	# t
	imulq	%rdx, %rsi	# _41, tmp218
	movq	%r12, -8(%rsp)	# t, %sfp
	movq	%r12, %r11	# t, t
	xorl	%ebx, %ebx	#
	xorl	%r12d, %r12d	# t
	movq	-16(%rsp), %xmm0	# %sfp, tmp226
	movq	%rsi, %rcx	# tmp218, tmp219
	addq	%r9, %rcx	# t, tmp221
	adcq	%rdi, %rbx	# t,
	addq	%rcx, %r11	# tmp221, t
	movq	%r13, %rcx	# t, t
	adcq	%rbx, %r12	#, t
	xorl	%edi, %edi	# t
	xorl	%ebx, %ebx	# t
	movq	%r12, %rsi	# t, t
	xorl	%r10d, %r10d	# _38
	addq	%rdx, %rcx	# _38, tmp225
	adcq	%r10, %rbx	# _38,
	addq	%rcx, %rsi	# tmp225, t
	movq	%r11, -16(%rsp)	# t, %sfp
	adcq	%rbx, %rdi	#, t
	movhps	-16(%rsp), %xmm0	# %sfp, tmp226
	movq	%rsi, -16(%rsp)	# t, %sfp
	movq	%rdi, %rcx	# t, t
	addq	%rax, %rcx	# t, t
	movl	%edx, %eax	# _38,
	movaps	%xmm0, (%r8)	# tmp226, MEM[(long unsigned int *)r_10(D)]
	movq	-16(%rsp), %xmm0	# %sfp, tmp227
	movq	%rcx, -16(%rsp)	# t, %sfp
	movhps	-16(%rsp), %xmm0	# %sfp, tmp227
	popq	%rbx	#
	.cfi_def_cfa_offset 40
	movaps	%xmm0, 16(%r8)	# tmp227, MEM[(long unsigned int *)r_10(D) + 16B]
	popq	%r12	#
	.cfi_def_cfa_offset 32
	popq	%r13	#
	.cfi_def_cfa_offset 24
	popq	%r14	#
	.cfi_def_cfa_offset 16
	popq	%r15	#
	.cfi_def_cfa_offset 8
	ret
	.cfi_endproc
.LFE101:
	.size	secp256k1_scalar_add, .-secp256k1_scalar_add
	.p2align 4,,15
	.type	secp256k1_scalar_set_b32, @function
secp256k1_scalar_set_b32:
.LFB103:
	.cfi_startproc
	pushq	%r13	#
	.cfi_def_cfa_offset 16
	.cfi_offset 13, -16
	pushq	%r12	#
	.cfi_def_cfa_offset 24
	.cfi_offset 12, -24
	movq	%rdi, %rcx	# r, r
	pushq	%rbp	#
	.cfi_def_cfa_offset 32
	.cfi_offset 6, -32
	pushq	%rbx	#
	.cfi_def_cfa_offset 40
	.cfi_offset 3, -40
	movq	%rdx, %rbp	# overflow, overflow
	movq	24(%rsi), %r9	# MEM[(const unsigned char *)b32_2(D) + 24B], MEM[(const unsigned char *)b32_2(D) + 24B]
	movabsq	$-4994812053365940165, %rdx	#, tmp172
	bswap	%r9	# _33
	movq	%r9, (%rdi)	# _33, r_34(D)->d
	movq	16(%rsi), %r11	# MEM[(const unsigned char *)b32_2(D) + 16B], MEM[(const unsigned char *)b32_2(D) + 16B]
	bswap	%r11	# _65
	movq	%r11, 8(%rdi)	# _65, r_34(D)->d
	movq	8(%rsi), %r8	# MEM[(const unsigned char *)b32_2(D) + 8B], MEM[(const unsigned char *)b32_2(D) + 8B]
	bswap	%r8	# _96
	movq	%r8, 16(%rdi)	# _96, r_34(D)->d
	movq	(%rsi), %r12	# MEM[(const unsigned char *)b32_2(D)], MEM[(const unsigned char *)b32_2(D)]
	bswap	%r12	# _127
	cmpq	$-1, %r12	#, _127
	setne	%r13b	#, tmp168
	cmpq	$-3, %r8	#, _96
	setbe	%al	#, tmp170
	orl	%r13d, %eax	# tmp168, _156
	cmpq	%rdx, %r11	# tmp172, _65
	movabsq	$-4624529908474429120, %rdx	#, tmp175
	seta	%r13b	#, tmp173
	cmpq	%rdx, %r9	# tmp175, _33
	seta	%dl	#, tmp176
	orl	%edx, %r13d	# tmp176, tmp177
	movabsq	$-4994812053365940166, %rdx	#, tmp180
	cmpq	%rdx, %r11	# tmp180, _65
	movzbl	%r13b, %r13d	# tmp177, tmp178
	setbe	%dl	#, tmp181
	orl	%eax, %edx	# _156, tmp182
	movzbl	%al, %eax	# _156, no
	movzbl	%dl, %edx	# tmp182, no
	notl	%eax	# tmp189
	notl	%edx	# tmp184
	andl	%edx, %r13d	# tmp184, tmp185
	xorl	%edx, %edx	# tmp186
	cmpq	$-1, %r8	#, _96
	sete	%dl	#, tmp186
	xorl	%edi, %edi	#
	andl	%edx, %eax	# tmp186, tmp190
	xorl	%edx, %edx	# _33
	orl	%eax, %r13d	# tmp190, yes
	movabsq	$4624529908474429119, %rax	#, tmp192
	movslq	%r13d, %rbx	# yes, _132
	imulq	%rbx, %rax	# _132, tmp192
	movq	%rax, %rsi	# tmp192, tmp193
	movabsq	$4994812053365940164, %rax	#, tmp196
	addq	%r9, %rsi	# _33, t
	adcq	%rdx, %rdi	# _33, t
	movq	%rsi, (%rcx)	# t, r_34(D)->d
	xorl	%edx, %edx	# _65
	imulq	%rbx, %rax	# _132, tmp196
	movq	%rdi, %rsi	# t, t
	xorl	%edi, %edi	# t
	movq	%rsi, %r9	# t, t
	movq	%rdi, %r10	# t, t
	xorl	%edi, %edi	#
	movq	%rax, %rsi	# tmp196, tmp197
	movq	%r8, %rax	# _96, _96
	addq	%r11, %rsi	# _65, tmp199
	adcq	%rdx, %rdi	# _65,
	addq	%r9, %rsi	# t, t
	movq	%rbx, %r9	# _132, yes
	adcq	%r10, %rdi	# t, t
	movq	%rsi, 8(%rcx)	# t, r_34(D)->d
	xorl	%edx, %edx	# _96
	movq	%rdi, %rsi	# t, t
	sarq	$63, %rbx	#, _132
	xorl	%edi, %edi	# t
	addq	%r9, %rax	# yes, tmp204
	adcq	%rbx, %rdx	# yes,
	addq	%rax, %rsi	# tmp204, t
	adcq	%rdx, %rdi	#, t
	movq	%rsi, 16(%rcx)	# t, r_34(D)->d
	movq	%rdi, %rsi	# t, t
	addq	%r12, %rsi	# _127, t
	testq	%rbp, %rbp	# overflow
	movq	%rsi, 24(%rcx)	# t, r_34(D)->d
	je	.L34	#,
	movl	%r13d, 0(%rbp)	# yes, *overflow_129(D)
.L34:
	popq	%rbx	#
	.cfi_def_cfa_offset 32
	popq	%rbp	#
	.cfi_def_cfa_offset 24
	popq	%r12	#
	.cfi_def_cfa_offset 16
	popq	%r13	#
	.cfi_def_cfa_offset 8
	ret
	.cfi_endproc
.LFE103:
	.size	secp256k1_scalar_set_b32, .-secp256k1_scalar_set_b32
	.p2align 4,,15
	.type	secp256k1_scalar_get_b32, @function
secp256k1_scalar_get_b32:
.LFB104:
	.cfi_startproc
	movzbl	31(%rsi), %eax	# a_2(D)->d, tmp181
	movb	%al, (%rdi)	# tmp181, *bin_6(D)
	movzwl	30(%rsi), %eax	# a_2(D)->d, tmp183
	movb	%al, 1(%rdi)	# tmp183, MEM[(unsigned char *)bin_6(D) + 1B]
	movq	24(%rsi), %rax	# a_2(D)->d, tmp185
	shrq	$40, %rax	#, tmp185
	movb	%al, 2(%rdi)	# tmp185, MEM[(unsigned char *)bin_6(D) + 2B]
	movl	28(%rsi), %eax	# a_2(D)->d, tmp187
	movb	%al, 3(%rdi)	# tmp187, MEM[(unsigned char *)bin_6(D) + 3B]
	movq	24(%rsi), %rax	# a_2(D)->d, tmp189
	shrq	$24, %rax	#, tmp189
	movb	%al, 4(%rdi)	# tmp189, MEM[(unsigned char *)bin_6(D) + 4B]
	movq	24(%rsi), %rax	# a_2(D)->d, tmp191
	shrq	$16, %rax	#, tmp191
	movb	%al, 5(%rdi)	# tmp191, MEM[(unsigned char *)bin_6(D) + 5B]
	movq	24(%rsi), %rax	# a_2(D)->d, tmp193
	shrq	$8, %rax	#, tmp193
	movb	%al, 6(%rdi)	# tmp193, MEM[(unsigned char *)bin_6(D) + 6B]
	movq	24(%rsi), %rax	# a_2(D)->d, a_2(D)->d
	movb	%al, 7(%rdi)	# a_2(D)->d, MEM[(unsigned char *)bin_6(D) + 7B]
	movzbl	23(%rsi), %eax	# a_2(D)->d, tmp196
	movb	%al, 8(%rdi)	# tmp196, MEM[(unsigned char *)bin_6(D) + 8B]
	movzwl	22(%rsi), %eax	# a_2(D)->d, tmp198
	movb	%al, 9(%rdi)	# tmp198, MEM[(unsigned char *)bin_6(D) + 9B]
	movq	16(%rsi), %rax	# a_2(D)->d, tmp200
	shrq	$40, %rax	#, tmp200
	movb	%al, 10(%rdi)	# tmp200, MEM[(unsigned char *)bin_6(D) + 10B]
	movl	20(%rsi), %eax	# a_2(D)->d, tmp202
	movb	%al, 11(%rdi)	# tmp202, MEM[(unsigned char *)bin_6(D) + 11B]
	movq	16(%rsi), %rax	# a_2(D)->d, tmp204
	shrq	$24, %rax	#, tmp204
	movb	%al, 12(%rdi)	# tmp204, MEM[(unsigned char *)bin_6(D) + 12B]
	movq	16(%rsi), %rax	# a_2(D)->d, tmp206
	shrq	$16, %rax	#, tmp206
	movb	%al, 13(%rdi)	# tmp206, MEM[(unsigned char *)bin_6(D) + 13B]
	movq	16(%rsi), %rax	# a_2(D)->d, tmp208
	shrq	$8, %rax	#, tmp208
	movb	%al, 14(%rdi)	# tmp208, MEM[(unsigned char *)bin_6(D) + 14B]
	movq	16(%rsi), %rax	# a_2(D)->d, a_2(D)->d
	movb	%al, 15(%rdi)	# a_2(D)->d, MEM[(unsigned char *)bin_6(D) + 15B]
	movzbl	15(%rsi), %eax	# a_2(D)->d, tmp211
	movb	%al, 16(%rdi)	# tmp211, MEM[(unsigned char *)bin_6(D) + 16B]
	movzwl	14(%rsi), %eax	# a_2(D)->d, tmp213
	movb	%al, 17(%rdi)	# tmp213, MEM[(unsigned char *)bin_6(D) + 17B]
	movq	8(%rsi), %rax	# a_2(D)->d, tmp215
	shrq	$40, %rax	#, tmp215
	movb	%al, 18(%rdi)	# tmp215, MEM[(unsigned char *)bin_6(D) + 18B]
	movl	12(%rsi), %eax	# a_2(D)->d, tmp217
	movb	%al, 19(%rdi)	# tmp217, MEM[(unsigned char *)bin_6(D) + 19B]
	movq	8(%rsi), %rax	# a_2(D)->d, tmp219
	shrq	$24, %rax	#, tmp219
	movb	%al, 20(%rdi)	# tmp219, MEM[(unsigned char *)bin_6(D) + 20B]
	movq	8(%rsi), %rax	# a_2(D)->d, tmp221
	shrq	$16, %rax	#, tmp221
	movb	%al, 21(%rdi)	# tmp221, MEM[(unsigned char *)bin_6(D) + 21B]
	movq	8(%rsi), %rax	# a_2(D)->d, tmp223
	shrq	$8, %rax	#, tmp223
	movb	%al, 22(%rdi)	# tmp223, MEM[(unsigned char *)bin_6(D) + 22B]
	movq	8(%rsi), %rax	# a_2(D)->d, a_2(D)->d
	movb	%al, 23(%rdi)	# a_2(D)->d, MEM[(unsigned char *)bin_6(D) + 23B]
	movq	(%rsi), %rax	# a_2(D)->d, tmp226
	shrq	$56, %rax	#, tmp226
	movb	%al, 24(%rdi)	# tmp226, MEM[(unsigned char *)bin_6(D) + 24B]
	movq	(%rsi), %rax	# a_2(D)->d, tmp228
	shrq	$48, %rax	#, tmp228
	movb	%al, 25(%rdi)	# tmp228, MEM[(unsigned char *)bin_6(D) + 25B]
	movq	(%rsi), %rax	# a_2(D)->d, tmp230
	shrq	$40, %rax	#, tmp230
	movb	%al, 26(%rdi)	# tmp230, MEM[(unsigned char *)bin_6(D) + 26B]
	movq	(%rsi), %rax	# a_2(D)->d, tmp232
	shrq	$32, %rax	#, tmp232
	movb	%al, 27(%rdi)	# tmp232, MEM[(unsigned char *)bin_6(D) + 27B]
	movq	(%rsi), %rax	# a_2(D)->d, tmp234
	shrq	$24, %rax	#, tmp234
	movb	%al, 28(%rdi)	# tmp234, MEM[(unsigned char *)bin_6(D) + 28B]
	movq	(%rsi), %rax	# a_2(D)->d, tmp236
	shrq	$16, %rax	#, tmp236
	movb	%al, 29(%rdi)	# tmp236, MEM[(unsigned char *)bin_6(D) + 29B]
	movq	(%rsi), %rax	# a_2(D)->d, tmp238
	shrq	$8, %rax	#, tmp238
	movb	%al, 30(%rdi)	# tmp238, MEM[(unsigned char *)bin_6(D) + 30B]
	movq	(%rsi), %rax	# a_2(D)->d, a_2(D)->d
	movb	%al, 31(%rdi)	# a_2(D)->d, MEM[(unsigned char *)bin_6(D) + 31B]
	ret
	.cfi_endproc
.LFE104:
	.size	secp256k1_scalar_get_b32, .-secp256k1_scalar_get_b32
	.p2align 4,,15
	.type	secp256k1_scalar_reduce_512, @function
secp256k1_scalar_reduce_512:
.LFB110:
	.cfi_startproc
	pushq	%r15	#
	.cfi_def_cfa_offset 16
	.cfi_offset 15, -16
	movq	%rdi, %rcx	# r, r
	pushq	%r14	#
	.cfi_def_cfa_offset 24
	.cfi_offset 14, -24
	pushq	%r13	#
	.cfi_def_cfa_offset 32
	.cfi_offset 13, -32
	pushq	%r12	#
	.cfi_def_cfa_offset 40
	.cfi_offset 12, -40
	pushq	%rbp	#
	.cfi_def_cfa_offset 48
	.cfi_offset 6, -48
	pushq	%rbx	#
	.cfi_def_cfa_offset 56
	.cfi_offset 3, -56
#APP
# 270 "scalar_4x64_impl.h" 1
	movq 32(%rsi), %r11
movq 40(%rsi), %r12
movq 48(%rsi), %r13
movq 56(%rsi), %r14
movq 0(%rsi), %r8
xorq %r9, %r9
xorq %r10, %r10
movq $4624529908474429119, %rax	#
mulq %r11
addq %rax, %r8
adcq %rdx, %r9
movq %r8, -40(%rsp)	# %sfp
xorq %r8, %r8
addq 8(%rsi), %r9
adcq $0, %r10
movq $4624529908474429119, %rax	#
mulq %r12
addq %rax, %r9
adcq %rdx, %r10
adcq $0, %r8
movq $4994812053365940164, %rax	#
mulq %r11
addq %rax, %r9
adcq %rdx, %r10
adcq $0, %r8
movq %r9, -32(%rsp)	# %sfp
xorq %r9, %r9
addq 16(%rsi), %r10
adcq $0, %r8
adcq $0, %r9
movq $4624529908474429119, %rax	#
mulq %r13
addq %rax, %r10
adcq %rdx, %r8
adcq $0, %r9
movq $4994812053365940164, %rax	#
mulq %r12
addq %rax, %r10
adcq %rdx, %r8
adcq $0, %r9
addq %r11, %r10
adcq $0, %r8
adcq $0, %r9
movq %r10, -24(%rsp)	# %sfp
xorq %r10, %r10
addq 24(%rsi), %r8
adcq $0, %r9
adcq $0, %r10
movq $4624529908474429119, %rax	#
mulq %r14
addq %rax, %r8
adcq %rdx, %r9
adcq $0, %r10
movq $4994812053365940164, %rax	#
mulq %r13
addq %rax, %r8
adcq %rdx, %r9
adcq $0, %r10
addq %r12, %r8
adcq $0, %r9
adcq $0, %r10
movq %r8, -16(%rsp)	# %sfp
xorq %r8, %r8
movq $4994812053365940164, %rax	#
mulq %r14
addq %rax, %r9
adcq %rdx, %r10
adcq $0, %r8
addq %r13, %r9
adcq $0, %r10
adcq $0, %r8
movq %r9, %r15	# m4
addq %r14, %r10
adcq $0, %r8
movq %r10, %rsi	# m5
movq %r8, %rdi	# m6

# 0 "" 2
# 376 "scalar_4x64_impl.h" 1
	movq %r15, %r11	# m4
movq %rsi, %r12	# m5
movq %rdi, %r13	# m6
movq -40(%rsp), %r8	# %sfp
xorq %r9, %r9
xorq %r10, %r10
movq $4624529908474429119, %rax	#
mulq %r11
addq %rax, %r8
adcq %rdx, %r9
movq %r8, %rbx	# p0
xorq %r8, %r8
addq -32(%rsp), %r9	# %sfp
adcq $0, %r10
movq $4624529908474429119, %rax	#
mulq %r12
addq %rax, %r9
adcq %rdx, %r10
adcq $0, %r8
movq $4994812053365940164, %rax	#
mulq %r11
addq %rax, %r9
adcq %rdx, %r10
adcq $0, %r8
movq %r9, %r14	# p1
xorq %r9, %r9
addq -24(%rsp), %r10	# %sfp
adcq $0, %r8
adcq $0, %r9
movq $4624529908474429119, %rax	#
mulq %r13
addq %rax, %r10
adcq %rdx, %r8
adcq $0, %r9
movq $4994812053365940164, %rax	#
mulq %r12
addq %rax, %r10
adcq %rdx, %r8
adcq $0, %r9
addq %r11, %r10
adcq $0, %r8
adcq $0, %r9
movq %r10, %rbp	# p2
addq -16(%rsp), %r8	# %sfp
adcq $0, %r9
movq $4994812053365940164, %rax	#
mulq %r13
addq %rax, %r8
adcq %rdx, %r9
addq %r12, %r8
adcq $0, %r9
movq %r8, %rsi	# p3
addq %r13, %r9
movq %r9, %r15	# p4

# 0 "" 2
#NO_APP
	movq	%rcx, %rdi	# r, r
#APP
# 455 "scalar_4x64_impl.h" 1
	movq %r15, %r10	# p4
movq $4624529908474429119, %rax	#
mulq %r10
addq %rbx, %rax	# p0
adcq $0, %rdx
movq %rax, 0(%rdi)	# r
movq %rdx, %r8
xorq %r9, %r9
addq %r14, %r8	# p1
adcq $0, %r9
movq $4994812053365940164, %rax	#
mulq %r10
addq %rax, %r8
adcq %rdx, %r9
movq %r8, 8(%rdi)	# r
xorq %r8, %r8
addq %r10, %r9
adcq $0, %r8
addq %rbp, %r9	# p2
adcq $0, %r8
movq %r9, 16(%rdi)	# r
xorq %r9, %r9
addq %rsi, %r8	# p3
adcq $0, %r9
movq %r8, 24(%rdi)	# r
movq %r9, %r14	# c

# 0 "" 2
#NO_APP
	movq	24(%rcx), %rbp	# MEM[(const struct secp256k1_scalar *)r_15(D)].d, _44
	movq	16(%rcx), %rbx	# MEM[(const struct secp256k1_scalar *)r_15(D)].d, _46
	movabsq	$-4994812053365940165, %rsi	#, tmp176
	movq	8(%rcx), %r13	# MEM[(const struct secp256k1_scalar *)r_15(D)].d, _54
	movq	(%rcx), %r9	# MEM[(const struct secp256k1_scalar *)r_15(D)].d, _63
	movabsq	$-4624529908474429120, %rdi	#, tmp179
	cmpq	$-1, %rbp	#, _44
	setne	%dl	#, tmp166
	cmpq	$-3, %rbx	#, _46
	setbe	%al	#, tmp168
	orl	%eax, %edx	# tmp168, _48
	movabsq	$-4994812053365940166, %rax	#, tmp170
	cmpq	%rax, %r13	# tmp170, _54
	setbe	%al	#, tmp171
	orl	%edx, %eax	# _48, tmp172
	cmpq	%rsi, %r13	# tmp176, _54
	movzbl	%dl, %edx	# _48, no
	seta	%sil	#, tmp177
	cmpq	%rdi, %r9	# tmp179, _63
	movzbl	%al, %eax	# tmp172, no
	seta	%dil	#, tmp180
	notl	%eax	# tmp174
	notl	%edx	# tmp187
	orl	%edi, %esi	# tmp180, tmp181
	movzbl	%sil, %esi	# tmp181, tmp182
	andl	%esi, %eax	# tmp182, tmp183
	xorl	%esi, %esi	# tmp184
	cmpq	$-1, %rbx	#, _46
	sete	%sil	#, tmp184
	xorl	%edi, %edi	#
	andl	%esi, %edx	# tmp184, tmp188
	orl	%edx, %eax	# tmp188, yes
	xorl	%edx, %edx	# _63
	leal	(%rax,%r14), %r8d	#, _22
	movabsq	$4624529908474429119, %rax	#, tmp191
	imulq	%r8, %rax	# _22, tmp191
	movq	%rax, %rsi	# tmp191, tmp192
	addq	%r9, %rsi	# _63, t
	movq	%r13, %r9	# _54, _54
	adcq	%rdx, %rdi	# _63, t
	xorl	%r12d, %r12d	# t
	xorl	%edx, %edx	#
	movq	%rdi, %r11	# t, t
	movabsq	$4994812053365940164, %rdi	#, tmp195
	movq	%rsi, -40(%rsp)	# t, %sfp
	movq	%rdi, %r10	# tmp195, tmp195
	movq	-40(%rsp), %xmm0	# %sfp, tmp203
	imulq	%r8, %r10	# _22, tmp195
	movq	%rbp, %rsi	# _44, _44
	movq	%r10, %rax	# tmp195, tmp196
	xorl	%r10d, %r10d	# _54
	addq	%rax, %r9	# tmp196, tmp198
	movq	%rbx, %rax	# _46, _46
	adcq	%rdx, %r10	#,
	addq	%r11, %r9	# t, t
	adcq	%r12, %r10	# t, t
	xorl	%r14d, %r14d	# t
	xorl	%r12d, %r12d	# _20
	xorl	%edx, %edx	# _46
	addq	%r8, %rax	# _20, tmp202
	movq	%r9, -40(%rsp)	# t, %sfp
	adcq	%r12, %rdx	# _20,
	addq	%r10, %rax	# t, t
	movhps	-40(%rsp), %xmm0	# %sfp, tmp203
	adcq	%r14, %rdx	# t, t
	movq	%rax, -40(%rsp)	# t, %sfp
	addq	%rdx, %rsi	# t, t
	movaps	%xmm0, (%rcx)	# tmp203, MEM[(long unsigned int *)r_15(D)]
	movq	-40(%rsp), %xmm0	# %sfp, tmp204
	movq	%rsi, -40(%rsp)	# t, %sfp
	movhps	-40(%rsp), %xmm0	# %sfp, tmp204
	popq	%rbx	#
	.cfi_def_cfa_offset 48
	movaps	%xmm0, 16(%rcx)	# tmp204, MEM[(long unsigned int *)r_15(D) + 16B]
	popq	%rbp	#
	.cfi_def_cfa_offset 40
	popq	%r12	#
	.cfi_def_cfa_offset 32
	popq	%r13	#
	.cfi_def_cfa_offset 24
	popq	%r14	#
	.cfi_def_cfa_offset 16
	popq	%r15	#
	.cfi_def_cfa_offset 8
	ret
	.cfi_endproc
.LFE110:
	.size	secp256k1_scalar_reduce_512, .-secp256k1_scalar_reduce_512
	.p2align 4,,15
	.type	secp256k1_scalar_mul_512, @function
secp256k1_scalar_mul_512:
.LFB111:
	.cfi_startproc
	pushq	%r15	#
	.cfi_def_cfa_offset 16
	.cfi_offset 15, -16
	pushq	%r14	#
	.cfi_def_cfa_offset 24
	.cfi_offset 14, -24
	pushq	%r13	#
	.cfi_def_cfa_offset 32
	.cfi_offset 13, -32
	pushq	%r12	#
	.cfi_def_cfa_offset 40
	.cfi_offset 12, -40
	pushq	%rbp	#
	.cfi_def_cfa_offset 48
	.cfi_offset 6, -48
	movq	%rdi, %rbp	# l, l
	pushq	%rbx	#
	.cfi_def_cfa_offset 56
	.cfi_offset 3, -56
	movq	%rsi, %rdi	# a, a
	movq	%rbp, %rsi	# l, l
#APP
# 575 "scalar_4x64_impl.h" 1
	movq 0(%rdi), %r15
movq 8(%rdi), %rbx
movq 16(%rdi), %rcx
movq 0(%rdx), %r11
movq 8(%rdx), %r12
movq 16(%rdx), %r13
movq 24(%rdx), %r14
movq %r15, %rax
mulq %r11
movq %rax, 0(%rsi)
movq %rdx, %r8
xorq %r9, %r9
xorq %r10, %r10
movq %r15, %rax
mulq %r12
addq %rax, %r8
adcq %rdx, %r9
adcq $0, %r10
movq %rbx, %rax
mulq %r11
addq %rax, %r8
adcq %rdx, %r9
adcq $0, %r10
movq %r8, 8(%rsi)
xorq %r8, %r8
movq %r15, %rax
mulq %r13
addq %rax, %r9
adcq %rdx, %r10
adcq $0, %r8
movq %rbx, %rax
mulq %r12
addq %rax, %r9
adcq %rdx, %r10
adcq $0, %r8
movq %rcx, %rax
mulq %r11
addq %rax, %r9
adcq %rdx, %r10
adcq $0, %r8
movq %r9, 16(%rsi)
xorq %r9, %r9
movq %r15, %rax
mulq %r14
addq %rax, %r10
adcq %rdx, %r8
adcq $0, %r9
movq 24(%rdi), %r15
movq %rbx, %rax
mulq %r13
addq %rax, %r10
adcq %rdx, %r8
adcq $0, %r9
movq %rcx, %rax
mulq %r12
addq %rax, %r10
adcq %rdx, %r8
adcq $0, %r9
movq %r15, %rax
mulq %r11
addq %rax, %r10
adcq %rdx, %r8
adcq $0, %r9
movq %r10, 24(%rsi)
xorq %r10, %r10
movq %rbx, %rax
mulq %r14
addq %rax, %r8
adcq %rdx, %r9
adcq $0, %r10
movq %rcx, %rax
mulq %r13
addq %rax, %r8
adcq %rdx, %r9
adcq $0, %r10
movq %r15, %rax
mulq %r12
addq %rax, %r8
adcq %rdx, %r9
adcq $0, %r10
movq %r8, 32(%rsi)
xorq %r8, %r8
movq %rcx, %rax
mulq %r14
addq %rax, %r9
adcq %rdx, %r10
adcq $0, %r8
movq %r15, %rax
mulq %r13
addq %rax, %r9
adcq %rdx, %r10
adcq $0, %r8
movq %r9, 40(%rsi)
movq %r15, %rax
mulq %r14
addq %rax, %r10
adcq %rdx, %r8
movq %r10, 48(%rsi)
movq %r8, 56(%rsi)

# 0 "" 2
#NO_APP
	popq	%rbx	#
	.cfi_def_cfa_offset 48
	popq	%rbp	#
	.cfi_def_cfa_offset 40
	popq	%r12	#
	.cfi_def_cfa_offset 32
	popq	%r13	#
	.cfi_def_cfa_offset 24
	popq	%r14	#
	.cfi_def_cfa_offset 16
	popq	%r15	#
	.cfi_def_cfa_offset 8
	ret
	.cfi_endproc
.LFE111:
	.size	secp256k1_scalar_mul_512, .-secp256k1_scalar_mul_512
	.p2align 4,,15
	.type	secp256k1_scalar_sqr_512, @function
secp256k1_scalar_sqr_512:
.LFB112:
	.cfi_startproc
	movq	%rdi, %rcx	# l, l
	pushq	%r14	#
	.cfi_def_cfa_offset 16
	.cfi_offset 14, -16
	movq	%rsi, %rdi	# a, a
	pushq	%r13	#
	.cfi_def_cfa_offset 24
	.cfi_offset 13, -24
	movq	%rcx, %rsi	# l, l
	pushq	%r12	#
	.cfi_def_cfa_offset 32
	.cfi_offset 12, -32
#APP
# 741 "scalar_4x64_impl.h" 1
	movq 0(%rdi), %r11
movq 8(%rdi), %r12
movq 16(%rdi), %r13
movq 24(%rdi), %r14
movq %r11, %rax
mulq %r11
movq %rax, 0(%rsi)
movq %rdx, %r8
xorq %r9, %r9
xorq %r10, %r10
movq %r11, %rax
mulq %r12
addq %rax, %r8
adcq %rdx, %r9
adcq $0, %r10
addq %rax, %r8
adcq %rdx, %r9
adcq $0, %r10
movq %r8, 8(%rsi)
xorq %r8, %r8
movq %r11, %rax
mulq %r13
addq %rax, %r9
adcq %rdx, %r10
adcq $0, %r8
addq %rax, %r9
adcq %rdx, %r10
adcq $0, %r8
movq %r12, %rax
mulq %r12
addq %rax, %r9
adcq %rdx, %r10
adcq $0, %r8
movq %r9, 16(%rsi)
xorq %r9, %r9
movq %r11, %rax
mulq %r14
addq %rax, %r10
adcq %rdx, %r8
adcq $0, %r9
addq %rax, %r10
adcq %rdx, %r8
adcq $0, %r9
movq %r12, %rax
mulq %r13
addq %rax, %r10
adcq %rdx, %r8
adcq $0, %r9
addq %rax, %r10
adcq %rdx, %r8
adcq $0, %r9
movq %r10, 24(%rsi)
xorq %r10, %r10
movq %r12, %rax
mulq %r14
addq %rax, %r8
adcq %rdx, %r9
adcq $0, %r10
addq %rax, %r8
adcq %rdx, %r9
adcq $0, %r10
movq %r13, %rax
mulq %r13
addq %rax, %r8
adcq %rdx, %r9
adcq $0, %r10
movq %r8, 32(%rsi)
xorq %r8, %r8
movq %r13, %rax
mulq %r14
addq %rax, %r9
adcq %rdx, %r10
adcq $0, %r8
addq %rax, %r9
adcq %rdx, %r10
adcq $0, %r8
movq %r9, 40(%rsi)
movq %r14, %rax
mulq %r14
addq %rax, %r10
adcq %rdx, %r8
movq %r10, 48(%rsi)
movq %r8, 56(%rsi)

# 0 "" 2
#NO_APP
	popq	%r12	#
	.cfi_def_cfa_offset 24
	popq	%r13	#
	.cfi_def_cfa_offset 16
	popq	%r14	#
	.cfi_def_cfa_offset 8
	ret
	.cfi_endproc
.LFE112:
	.size	secp256k1_scalar_sqr_512, .-secp256k1_scalar_sqr_512
	.p2align 4,,15
	.type	secp256k1_scalar_inverse, @function
secp256k1_scalar_inverse:
.LFB120:
	.cfi_startproc
	pushq	%r12	#
	.cfi_def_cfa_offset 16
	.cfi_offset 12, -16
	pushq	%rbp	#
	.cfi_def_cfa_offset 24
	.cfi_offset 6, -24
	movq	%rdi, %r12	# r, r
	pushq	%rbx	#
	.cfi_def_cfa_offset 32
	.cfi_offset 3, -32
	movq	%rsi, %rbp	# x, x
	movl	$6, %ebx	#, ivtmp_1
	subq	$416, %rsp	#,
	.cfi_def_cfa_offset 448
	leaq	352(%rsp), %rdi	#, tmp622
	call	secp256k1_scalar_sqr_512	#
	leaq	352(%rsp), %rsi	#, tmp623
	movq	%rsp, %rdi	#,
	call	secp256k1_scalar_reduce_512	#
	leaq	352(%rsp), %rdi	#, tmp624
	movq	%rbp, %rdx	# x,
	movq	%rsp, %rsi	#,
	call	secp256k1_scalar_mul_512	#
	leaq	352(%rsp), %rsi	#, tmp625
	movq	%rsp, %rdi	#,
	call	secp256k1_scalar_reduce_512	#
	leaq	352(%rsp), %rdi	#, tmp626
	movq	%rsp, %rsi	#,
	call	secp256k1_scalar_sqr_512	#
	leaq	352(%rsp), %rsi	#, tmp627
	leaq	32(%rsp), %rdi	#, tmp628
	call	secp256k1_scalar_reduce_512	#
	leaq	32(%rsp), %rsi	#, tmp629
	leaq	352(%rsp), %rdi	#, tmp630
	movq	%rbp, %rdx	# x,
	call	secp256k1_scalar_mul_512	#
	leaq	352(%rsp), %rsi	#, tmp631
	leaq	32(%rsp), %rdi	#, tmp632
	call	secp256k1_scalar_reduce_512	#
	leaq	32(%rsp), %rsi	#, tmp633
	leaq	352(%rsp), %rdi	#, tmp634
	call	secp256k1_scalar_sqr_512	#
	leaq	352(%rsp), %rsi	#, tmp635
	leaq	64(%rsp), %rdi	#, tmp636
	call	secp256k1_scalar_reduce_512	#
	leaq	64(%rsp), %rsi	#, tmp637
	leaq	352(%rsp), %rdi	#, tmp638
	movq	%rbp, %rdx	# x,
	call	secp256k1_scalar_mul_512	#
	leaq	352(%rsp), %rsi	#, tmp639
	leaq	64(%rsp), %rdi	#, tmp640
	call	secp256k1_scalar_reduce_512	#
	leaq	64(%rsp), %rsi	#, tmp641
	leaq	352(%rsp), %rdi	#, tmp642
	call	secp256k1_scalar_sqr_512	#
	leaq	352(%rsp), %rsi	#, tmp643
	leaq	96(%rsp), %rdi	#, tmp644
	call	secp256k1_scalar_reduce_512	#
	leaq	96(%rsp), %rsi	#, tmp645
	leaq	352(%rsp), %rdi	#, tmp646
	call	secp256k1_scalar_sqr_512	#
	leaq	352(%rsp), %rsi	#, tmp647
	leaq	96(%rsp), %rdi	#, tmp648
	call	secp256k1_scalar_reduce_512	#
	leaq	96(%rsp), %rsi	#, tmp649
	leaq	352(%rsp), %rdi	#, tmp650
	movq	%rsp, %rdx	#,
	call	secp256k1_scalar_mul_512	#
	leaq	352(%rsp), %rsi	#, tmp651
	leaq	96(%rsp), %rdi	#, tmp652
	call	secp256k1_scalar_reduce_512	#
	leaq	96(%rsp), %rsi	#, tmp653
	leaq	352(%rsp), %rdi	#, tmp654
	call	secp256k1_scalar_sqr_512	#
	leaq	352(%rsp), %rsi	#, tmp655
	leaq	128(%rsp), %rdi	#, tmp656
	call	secp256k1_scalar_reduce_512	#
	leaq	128(%rsp), %rsi	#, tmp657
	leaq	352(%rsp), %rdi	#, tmp658
	movq	%rbp, %rdx	# x,
	call	secp256k1_scalar_mul_512	#
	leaq	352(%rsp), %rsi	#, tmp659
	leaq	128(%rsp), %rdi	#, tmp660
	call	secp256k1_scalar_reduce_512	#
	leaq	128(%rsp), %rsi	#, tmp661
	leaq	352(%rsp), %rdi	#, tmp662
	call	secp256k1_scalar_sqr_512	#
	leaq	352(%rsp), %rsi	#, tmp663
	leaq	160(%rsp), %rdi	#, tmp664
	call	secp256k1_scalar_reduce_512	#
	leaq	160(%rsp), %rsi	#, tmp665
	leaq	352(%rsp), %rdi	#, tmp666
	movq	%rbp, %rdx	# x,
	call	secp256k1_scalar_mul_512	#
	leaq	352(%rsp), %rsi	#, tmp667
	leaq	160(%rsp), %rdi	#, tmp668
	call	secp256k1_scalar_reduce_512	#
	leaq	160(%rsp), %rsi	#, tmp669
	leaq	352(%rsp), %rdi	#, tmp670
	call	secp256k1_scalar_sqr_512	#
	leaq	352(%rsp), %rsi	#, tmp671
	leaq	192(%rsp), %rdi	#, tmp672
	call	secp256k1_scalar_reduce_512	#
	.p2align 4,,10
	.p2align 3
.L48:
	leaq	192(%rsp), %rsi	#, tmp673
	leaq	352(%rsp), %rdi	#, tmp674
	call	secp256k1_scalar_sqr_512	#
	leaq	352(%rsp), %rsi	#, tmp675
	leaq	192(%rsp), %rdi	#, tmp676
	call	secp256k1_scalar_reduce_512	#
	subl	$1, %ebx	#, ivtmp_1
	jne	.L48	#,
	leaq	128(%rsp), %rdx	#, tmp677
	leaq	192(%rsp), %rsi	#, tmp678
	leaq	352(%rsp), %rdi	#, tmp679
	movl	$14, %ebx	#, ivtmp_2
	call	secp256k1_scalar_mul_512	#
	leaq	352(%rsp), %rsi	#, tmp680
	leaq	192(%rsp), %rdi	#, tmp681
	call	secp256k1_scalar_reduce_512	#
	leaq	192(%rsp), %rsi	#, tmp682
	leaq	352(%rsp), %rdi	#, tmp683
	call	secp256k1_scalar_sqr_512	#
	leaq	352(%rsp), %rsi	#, tmp684
	leaq	224(%rsp), %rdi	#, tmp685
	call	secp256k1_scalar_reduce_512	#
	.p2align 4,,10
	.p2align 3
.L49:
	leaq	224(%rsp), %rsi	#, tmp686
	leaq	352(%rsp), %rdi	#, tmp687
	call	secp256k1_scalar_sqr_512	#
	leaq	352(%rsp), %rsi	#, tmp688
	leaq	224(%rsp), %rdi	#, tmp689
	call	secp256k1_scalar_reduce_512	#
	subl	$1, %ebx	#, ivtmp_2
	jne	.L49	#,
	leaq	192(%rsp), %rdx	#, tmp690
	leaq	224(%rsp), %rsi	#, tmp691
	leaq	352(%rsp), %rdi	#, tmp692
	movl	$29, %ebx	#, ivtmp_3
	call	secp256k1_scalar_mul_512	#
	leaq	352(%rsp), %rsi	#, tmp693
	leaq	224(%rsp), %rdi	#, tmp694
	call	secp256k1_scalar_reduce_512	#
	leaq	224(%rsp), %rsi	#, tmp695
	leaq	352(%rsp), %rdi	#, tmp696
	call	secp256k1_scalar_sqr_512	#
	leaq	352(%rsp), %rsi	#, tmp697
	leaq	256(%rsp), %rdi	#, tmp698
	call	secp256k1_scalar_reduce_512	#
	.p2align 4,,10
	.p2align 3
.L50:
	leaq	256(%rsp), %rsi	#, tmp699
	leaq	352(%rsp), %rdi	#, tmp700
	call	secp256k1_scalar_sqr_512	#
	leaq	352(%rsp), %rsi	#, tmp701
	leaq	256(%rsp), %rdi	#, tmp702
	call	secp256k1_scalar_reduce_512	#
	subl	$1, %ebx	#, ivtmp_3
	jne	.L50	#,
	leaq	224(%rsp), %rdx	#, tmp703
	leaq	256(%rsp), %rsi	#, tmp704
	leaq	352(%rsp), %rdi	#, tmp705
	movl	$59, %ebx	#, ivtmp_4
	call	secp256k1_scalar_mul_512	#
	leaq	352(%rsp), %rsi	#, tmp706
	leaq	256(%rsp), %rdi	#, tmp707
	call	secp256k1_scalar_reduce_512	#
	leaq	256(%rsp), %rsi	#, tmp708
	leaq	352(%rsp), %rdi	#, tmp709
	call	secp256k1_scalar_sqr_512	#
	leaq	352(%rsp), %rsi	#, tmp710
	leaq	288(%rsp), %rdi	#, tmp711
	call	secp256k1_scalar_reduce_512	#
	.p2align 4,,10
	.p2align 3
.L51:
	leaq	288(%rsp), %rsi	#, tmp712
	leaq	352(%rsp), %rdi	#, tmp713
	call	secp256k1_scalar_sqr_512	#
	leaq	352(%rsp), %rsi	#, tmp714
	leaq	288(%rsp), %rdi	#, tmp715
	call	secp256k1_scalar_reduce_512	#
	subl	$1, %ebx	#, ivtmp_4
	jne	.L51	#,
	leaq	256(%rsp), %rdx	#, tmp716
	leaq	288(%rsp), %rsi	#, tmp717
	leaq	352(%rsp), %rdi	#, tmp718
	movl	$6, %ebx	#, ivtmp_5
	call	secp256k1_scalar_mul_512	#
	leaq	352(%rsp), %rsi	#, tmp719
	leaq	288(%rsp), %rdi	#, tmp720
	call	secp256k1_scalar_reduce_512	#
	leaq	288(%rsp), %rsi	#, tmp721
	leaq	352(%rsp), %rdi	#, tmp722
	call	secp256k1_scalar_sqr_512	#
	leaq	352(%rsp), %rsi	#, tmp723
	leaq	320(%rsp), %rdi	#, tmp724
	call	secp256k1_scalar_reduce_512	#
	.p2align 4,,10
	.p2align 3
.L52:
	leaq	320(%rsp), %rsi	#, tmp725
	leaq	352(%rsp), %rdi	#, tmp726
	call	secp256k1_scalar_sqr_512	#
	leaq	352(%rsp), %rsi	#, tmp727
	leaq	320(%rsp), %rdi	#, tmp728
	call	secp256k1_scalar_reduce_512	#
	subl	$1, %ebx	#, ivtmp_5
	jne	.L52	#,
	leaq	128(%rsp), %rdx	#, tmp729
	leaq	320(%rsp), %rsi	#, tmp730
	leaq	352(%rsp), %rdi	#, tmp731
	movl	$4, %ebx	#, ivtmp_6
	call	secp256k1_scalar_mul_512	#
	leaq	352(%rsp), %rsi	#, tmp732
	leaq	320(%rsp), %rdi	#, tmp733
	call	secp256k1_scalar_reduce_512	#
	leaq	320(%rsp), %rsi	#, tmp734
	leaq	352(%rsp), %rdi	#, tmp735
	call	secp256k1_scalar_sqr_512	#
	leaq	352(%rsp), %rsi	#, tmp736
	leaq	320(%rsp), %rdi	#, tmp737
	call	secp256k1_scalar_reduce_512	#
	leaq	320(%rsp), %rsi	#, tmp738
	leaq	352(%rsp), %rdi	#, tmp739
	call	secp256k1_scalar_sqr_512	#
	leaq	352(%rsp), %rsi	#, tmp740
	leaq	320(%rsp), %rdi	#, tmp741
	call	secp256k1_scalar_reduce_512	#
	leaq	320(%rsp), %rsi	#, tmp742
	leaq	352(%rsp), %rdi	#, tmp743
	movq	%rbp, %rdx	# x,
	call	secp256k1_scalar_mul_512	#
	leaq	352(%rsp), %rsi	#, tmp744
	leaq	320(%rsp), %rdi	#, tmp745
	call	secp256k1_scalar_reduce_512	#
.L53:
	leaq	320(%rsp), %rsi	#, tmp746
	leaq	352(%rsp), %rdi	#, tmp747
	call	secp256k1_scalar_sqr_512	#
	leaq	352(%rsp), %rsi	#, tmp748
	leaq	320(%rsp), %rdi	#, tmp749
	call	secp256k1_scalar_reduce_512	#
	subl	$1, %ebx	#, ivtmp_6
	jne	.L53	#,
	leaq	32(%rsp), %rdx	#, tmp750
	leaq	320(%rsp), %rsi	#, tmp751
	leaq	352(%rsp), %rdi	#, tmp752
	movl	$4, %ebx	#, ivtmp_11
	call	secp256k1_scalar_mul_512	#
	leaq	352(%rsp), %rsi	#, tmp753
	leaq	320(%rsp), %rdi	#, tmp754
	call	secp256k1_scalar_reduce_512	#
	leaq	320(%rsp), %rsi	#, tmp755
	leaq	352(%rsp), %rdi	#, tmp756
	call	secp256k1_scalar_sqr_512	#
	leaq	352(%rsp), %rsi	#, tmp757
	leaq	320(%rsp), %rdi	#, tmp758
	call	secp256k1_scalar_reduce_512	#
	leaq	320(%rsp), %rsi	#, tmp759
	leaq	352(%rsp), %rdi	#, tmp760
	call	secp256k1_scalar_sqr_512	#
	leaq	352(%rsp), %rsi	#, tmp761
	leaq	320(%rsp), %rdi	#, tmp762
	call	secp256k1_scalar_reduce_512	#
	leaq	320(%rsp), %rsi	#, tmp763
	leaq	352(%rsp), %rdi	#, tmp764
	movq	%rbp, %rdx	# x,
	call	secp256k1_scalar_mul_512	#
	leaq	352(%rsp), %rsi	#, tmp765
	leaq	320(%rsp), %rdi	#, tmp766
	call	secp256k1_scalar_reduce_512	#
	leaq	320(%rsp), %rsi	#, tmp767
	leaq	352(%rsp), %rdi	#, tmp768
	call	secp256k1_scalar_sqr_512	#
	leaq	352(%rsp), %rsi	#, tmp769
	leaq	320(%rsp), %rdi	#, tmp770
	call	secp256k1_scalar_reduce_512	#
	leaq	320(%rsp), %rsi	#, tmp771
	leaq	352(%rsp), %rdi	#, tmp772
	call	secp256k1_scalar_sqr_512	#
	leaq	352(%rsp), %rsi	#, tmp773
	leaq	320(%rsp), %rdi	#, tmp774
	call	secp256k1_scalar_reduce_512	#
	leaq	320(%rsp), %rsi	#, tmp775
	leaq	352(%rsp), %rdi	#, tmp776
	movq	%rbp, %rdx	# x,
	call	secp256k1_scalar_mul_512	#
	leaq	352(%rsp), %rsi	#, tmp777
	leaq	320(%rsp), %rdi	#, tmp778
	call	secp256k1_scalar_reduce_512	#
	leaq	320(%rsp), %rsi	#, tmp779
	leaq	352(%rsp), %rdi	#, tmp780
	call	secp256k1_scalar_sqr_512	#
	leaq	352(%rsp), %rsi	#, tmp781
	leaq	320(%rsp), %rdi	#, tmp782
	call	secp256k1_scalar_reduce_512	#
	leaq	320(%rsp), %rsi	#, tmp783
	leaq	352(%rsp), %rdi	#, tmp784
	call	secp256k1_scalar_sqr_512	#
	leaq	352(%rsp), %rsi	#, tmp785
	leaq	320(%rsp), %rdi	#, tmp786
	call	secp256k1_scalar_reduce_512	#
	leaq	320(%rsp), %rsi	#, tmp787
	leaq	352(%rsp), %rdi	#, tmp788
	movq	%rbp, %rdx	# x,
	call	secp256k1_scalar_mul_512	#
	leaq	352(%rsp), %rsi	#, tmp789
	leaq	320(%rsp), %rdi	#, tmp790
	call	secp256k1_scalar_reduce_512	#
.L54:
	leaq	320(%rsp), %rsi	#, tmp791
	leaq	352(%rsp), %rdi	#, tmp792
	call	secp256k1_scalar_sqr_512	#
	leaq	352(%rsp), %rsi	#, tmp793
	leaq	320(%rsp), %rdi	#, tmp794
	call	secp256k1_scalar_reduce_512	#
	subl	$1, %ebx	#, ivtmp_11
	jne	.L54	#,
	leaq	32(%rsp), %rdx	#, tmp795
	leaq	320(%rsp), %rsi	#, tmp796
	leaq	352(%rsp), %rdi	#, tmp797
	movl	$3, %ebx	#, ivtmp_8
	call	secp256k1_scalar_mul_512	#
	leaq	352(%rsp), %rsi	#, tmp798
	leaq	320(%rsp), %rdi	#, tmp799
	call	secp256k1_scalar_reduce_512	#
.L55:
	leaq	320(%rsp), %rsi	#, tmp800
	leaq	352(%rsp), %rdi	#, tmp801
	call	secp256k1_scalar_sqr_512	#
	leaq	352(%rsp), %rsi	#, tmp802
	leaq	320(%rsp), %rdi	#, tmp803
	call	secp256k1_scalar_reduce_512	#
	subl	$1, %ebx	#, ivtmp_8
	jne	.L55	#,
	leaq	320(%rsp), %rsi	#, tmp804
	leaq	352(%rsp), %rdi	#, tmp805
	movq	%rsp, %rdx	#,
	movl	$4, %ebx	#, ivtmp_13
	call	secp256k1_scalar_mul_512	#
	leaq	352(%rsp), %rsi	#, tmp806
	leaq	320(%rsp), %rdi	#, tmp807
	call	secp256k1_scalar_reduce_512	#
.L56:
	leaq	320(%rsp), %rsi	#, tmp808
	leaq	352(%rsp), %rdi	#, tmp809
	call	secp256k1_scalar_sqr_512	#
	leaq	352(%rsp), %rsi	#, tmp810
	leaq	320(%rsp), %rdi	#, tmp811
	call	secp256k1_scalar_reduce_512	#
	subl	$1, %ebx	#, ivtmp_13
	jne	.L56	#,
	leaq	32(%rsp), %rdx	#, tmp812
	leaq	320(%rsp), %rsi	#, tmp813
	leaq	352(%rsp), %rdi	#, tmp814
	movl	$5, %ebx	#, ivtmp_14
	call	secp256k1_scalar_mul_512	#
	leaq	352(%rsp), %rsi	#, tmp815
	leaq	320(%rsp), %rdi	#, tmp816
	call	secp256k1_scalar_reduce_512	#
.L57:
	leaq	320(%rsp), %rsi	#, tmp817
	leaq	352(%rsp), %rdi	#, tmp818
	call	secp256k1_scalar_sqr_512	#
	leaq	352(%rsp), %rsi	#, tmp819
	leaq	320(%rsp), %rdi	#, tmp820
	call	secp256k1_scalar_reduce_512	#
	subl	$1, %ebx	#, ivtmp_14
	jne	.L57	#,
	leaq	32(%rsp), %rdx	#, tmp821
	leaq	320(%rsp), %rsi	#, tmp822
	leaq	352(%rsp), %rdi	#, tmp823
	movl	$4, %ebx	#, ivtmp_9
	call	secp256k1_scalar_mul_512	#
	leaq	352(%rsp), %rsi	#, tmp824
	leaq	320(%rsp), %rdi	#, tmp825
	call	secp256k1_scalar_reduce_512	#
.L58:
	leaq	320(%rsp), %rsi	#, tmp826
	leaq	352(%rsp), %rdi	#, tmp827
	call	secp256k1_scalar_sqr_512	#
	leaq	352(%rsp), %rsi	#, tmp828
	leaq	320(%rsp), %rdi	#, tmp829
	call	secp256k1_scalar_reduce_512	#
	subl	$1, %ebx	#, ivtmp_9
	jne	.L58	#,
	leaq	320(%rsp), %rsi	#, tmp830
	leaq	352(%rsp), %rdi	#, tmp831
	movq	%rsp, %rdx	#,
	movl	$5, %ebx	#, ivtmp_18
	call	secp256k1_scalar_mul_512	#
	leaq	352(%rsp), %rsi	#, tmp832
	leaq	320(%rsp), %rdi	#, tmp833
	call	secp256k1_scalar_reduce_512	#
	leaq	320(%rsp), %rsi	#, tmp834
	leaq	352(%rsp), %rdi	#, tmp835
	call	secp256k1_scalar_sqr_512	#
	leaq	352(%rsp), %rsi	#, tmp836
	leaq	320(%rsp), %rdi	#, tmp837
	call	secp256k1_scalar_reduce_512	#
	leaq	320(%rsp), %rsi	#, tmp838
	leaq	352(%rsp), %rdi	#, tmp839
	call	secp256k1_scalar_sqr_512	#
	leaq	352(%rsp), %rsi	#, tmp840
	leaq	320(%rsp), %rdi	#, tmp841
	call	secp256k1_scalar_reduce_512	#
	leaq	320(%rsp), %rsi	#, tmp842
	leaq	352(%rsp), %rdi	#, tmp843
	movq	%rbp, %rdx	# x,
	call	secp256k1_scalar_mul_512	#
	leaq	352(%rsp), %rsi	#, tmp844
	leaq	320(%rsp), %rdi	#, tmp845
	call	secp256k1_scalar_reduce_512	#
	leaq	320(%rsp), %rsi	#, tmp846
	leaq	352(%rsp), %rdi	#, tmp847
	call	secp256k1_scalar_sqr_512	#
	leaq	352(%rsp), %rsi	#, tmp848
	leaq	320(%rsp), %rdi	#, tmp849
	call	secp256k1_scalar_reduce_512	#
	leaq	320(%rsp), %rsi	#, tmp850
	leaq	352(%rsp), %rdi	#, tmp851
	call	secp256k1_scalar_sqr_512	#
	leaq	352(%rsp), %rsi	#, tmp852
	leaq	320(%rsp), %rdi	#, tmp853
	call	secp256k1_scalar_reduce_512	#
	leaq	320(%rsp), %rsi	#, tmp854
	leaq	352(%rsp), %rdi	#, tmp855
	movq	%rbp, %rdx	# x,
	call	secp256k1_scalar_mul_512	#
	leaq	352(%rsp), %rsi	#, tmp856
	leaq	320(%rsp), %rdi	#, tmp857
	call	secp256k1_scalar_reduce_512	#
.L59:
	leaq	320(%rsp), %rsi	#, tmp858
	leaq	352(%rsp), %rdi	#, tmp859
	call	secp256k1_scalar_sqr_512	#
	leaq	352(%rsp), %rsi	#, tmp860
	leaq	320(%rsp), %rdi	#, tmp861
	call	secp256k1_scalar_reduce_512	#
	subl	$1, %ebx	#, ivtmp_18
	jne	.L59	#,
	leaq	64(%rsp), %rdx	#, tmp862
	leaq	320(%rsp), %rsi	#, tmp863
	leaq	352(%rsp), %rdi	#, tmp864
	movl	$3, %ebx	#, ivtmp_20
	call	secp256k1_scalar_mul_512	#
	leaq	352(%rsp), %rsi	#, tmp865
	leaq	320(%rsp), %rdi	#, tmp866
	call	secp256k1_scalar_reduce_512	#
	leaq	320(%rsp), %rsi	#, tmp867
	leaq	352(%rsp), %rdi	#, tmp868
	call	secp256k1_scalar_sqr_512	#
	leaq	352(%rsp), %rsi	#, tmp869
	leaq	320(%rsp), %rdi	#, tmp870
	call	secp256k1_scalar_reduce_512	#
	leaq	320(%rsp), %rsi	#, tmp871
	leaq	352(%rsp), %rdi	#, tmp872
	call	secp256k1_scalar_sqr_512	#
	leaq	352(%rsp), %rsi	#, tmp873
	leaq	320(%rsp), %rdi	#, tmp874
	call	secp256k1_scalar_reduce_512	#
	leaq	320(%rsp), %rsi	#, tmp875
	leaq	352(%rsp), %rdi	#, tmp876
	movq	%rbp, %rdx	# x,
	call	secp256k1_scalar_mul_512	#
	leaq	352(%rsp), %rsi	#, tmp877
	leaq	320(%rsp), %rdi	#, tmp878
	call	secp256k1_scalar_reduce_512	#
.L60:
	leaq	320(%rsp), %rsi	#, tmp879
	leaq	352(%rsp), %rdi	#, tmp880
	call	secp256k1_scalar_sqr_512	#
	leaq	352(%rsp), %rsi	#, tmp881
	leaq	320(%rsp), %rdi	#, tmp882
	call	secp256k1_scalar_reduce_512	#
	subl	$1, %ebx	#, ivtmp_20
	jne	.L60	#,
	leaq	320(%rsp), %rsi	#, tmp883
	leaq	352(%rsp), %rdi	#, tmp884
	movq	%rbp, %rdx	# x,
	movl	$4, %ebx	#, ivtmp_10
	call	secp256k1_scalar_mul_512	#
	leaq	352(%rsp), %rsi	#, tmp885
	leaq	320(%rsp), %rdi	#, tmp886
	call	secp256k1_scalar_reduce_512	#
.L61:
	leaq	320(%rsp), %rsi	#, tmp887
	leaq	352(%rsp), %rdi	#, tmp888
	call	secp256k1_scalar_sqr_512	#
	leaq	352(%rsp), %rsi	#, tmp889
	leaq	320(%rsp), %rdi	#, tmp890
	call	secp256k1_scalar_reduce_512	#
	subl	$1, %ebx	#, ivtmp_10
	jne	.L61	#,
	leaq	320(%rsp), %rsi	#, tmp891
	leaq	352(%rsp), %rdi	#, tmp892
	movq	%rbp, %rdx	# x,
	movl	$10, %ebx	#, ivtmp_17
	call	secp256k1_scalar_mul_512	#
	leaq	352(%rsp), %rsi	#, tmp893
	leaq	320(%rsp), %rdi	#, tmp894
	call	secp256k1_scalar_reduce_512	#
	leaq	320(%rsp), %rsi	#, tmp895
	leaq	352(%rsp), %rdi	#, tmp896
	call	secp256k1_scalar_sqr_512	#
	leaq	352(%rsp), %rsi	#, tmp897
	leaq	320(%rsp), %rdi	#, tmp898
	call	secp256k1_scalar_reduce_512	#
	leaq	320(%rsp), %rsi	#, tmp899
	leaq	352(%rsp), %rdi	#, tmp900
	call	secp256k1_scalar_sqr_512	#
	leaq	352(%rsp), %rsi	#, tmp901
	leaq	320(%rsp), %rdi	#, tmp902
	call	secp256k1_scalar_reduce_512	#
	leaq	320(%rsp), %rsi	#, tmp903
	leaq	352(%rsp), %rdi	#, tmp904
	movq	%rbp, %rdx	# x,
	call	secp256k1_scalar_mul_512	#
	leaq	352(%rsp), %rsi	#, tmp905
	leaq	320(%rsp), %rdi	#, tmp906
	call	secp256k1_scalar_reduce_512	#
	.p2align 4,,10
	.p2align 3
.L62:
	leaq	320(%rsp), %rsi	#, tmp907
	leaq	352(%rsp), %rdi	#, tmp908
	call	secp256k1_scalar_sqr_512	#
	leaq	352(%rsp), %rsi	#, tmp909
	leaq	320(%rsp), %rdi	#, tmp910
	call	secp256k1_scalar_reduce_512	#
	subl	$1, %ebx	#, ivtmp_17
	jne	.L62	#,
	leaq	32(%rsp), %rdx	#, tmp911
	leaq	320(%rsp), %rsi	#, tmp912
	leaq	352(%rsp), %rdi	#, tmp913
	movl	$4, %ebx	#, ivtmp_21
	call	secp256k1_scalar_mul_512	#
	leaq	352(%rsp), %rsi	#, tmp914
	leaq	320(%rsp), %rdi	#, tmp915
	call	secp256k1_scalar_reduce_512	#
.L63:
	leaq	320(%rsp), %rsi	#, tmp916
	leaq	352(%rsp), %rdi	#, tmp917
	call	secp256k1_scalar_sqr_512	#
	leaq	352(%rsp), %rsi	#, tmp918
	leaq	320(%rsp), %rdi	#, tmp919
	call	secp256k1_scalar_reduce_512	#
	subl	$1, %ebx	#, ivtmp_21
	jne	.L63	#,
	leaq	32(%rsp), %rdx	#, tmp920
	leaq	320(%rsp), %rsi	#, tmp921
	leaq	352(%rsp), %rdi	#, tmp922
	movl	$9, %ebx	#, ivtmp_23
	call	secp256k1_scalar_mul_512	#
	leaq	352(%rsp), %rsi	#, tmp923
	leaq	320(%rsp), %rdi	#, tmp924
	call	secp256k1_scalar_reduce_512	#
	.p2align 4,,10
	.p2align 3
.L64:
	leaq	320(%rsp), %rsi	#, tmp925
	leaq	352(%rsp), %rdi	#, tmp926
	call	secp256k1_scalar_sqr_512	#
	leaq	352(%rsp), %rsi	#, tmp927
	leaq	320(%rsp), %rdi	#, tmp928
	call	secp256k1_scalar_reduce_512	#
	subl	$1, %ebx	#, ivtmp_23
	jne	.L64	#,
	leaq	160(%rsp), %rdx	#, tmp929
	leaq	320(%rsp), %rsi	#, tmp930
	leaq	352(%rsp), %rdi	#, tmp931
	movl	$3, %ebx	#, ivtmp_25
	call	secp256k1_scalar_mul_512	#
	leaq	352(%rsp), %rsi	#, tmp932
	leaq	320(%rsp), %rdi	#, tmp933
	call	secp256k1_scalar_reduce_512	#
	leaq	320(%rsp), %rsi	#, tmp934
	leaq	352(%rsp), %rdi	#, tmp935
	call	secp256k1_scalar_sqr_512	#
	leaq	352(%rsp), %rsi	#, tmp936
	leaq	320(%rsp), %rdi	#, tmp937
	call	secp256k1_scalar_reduce_512	#
	leaq	320(%rsp), %rsi	#, tmp938
	leaq	352(%rsp), %rdi	#, tmp939
	call	secp256k1_scalar_sqr_512	#
	leaq	352(%rsp), %rsi	#, tmp940
	leaq	320(%rsp), %rdi	#, tmp941
	call	secp256k1_scalar_reduce_512	#
	leaq	320(%rsp), %rsi	#, tmp942
	leaq	352(%rsp), %rdi	#, tmp943
	movq	%rbp, %rdx	# x,
	call	secp256k1_scalar_mul_512	#
	leaq	352(%rsp), %rsi	#, tmp944
	leaq	320(%rsp), %rdi	#, tmp945
	call	secp256k1_scalar_reduce_512	#
.L65:
	leaq	320(%rsp), %rsi	#, tmp946
	leaq	352(%rsp), %rdi	#, tmp947
	call	secp256k1_scalar_sqr_512	#
	leaq	352(%rsp), %rsi	#, tmp948
	leaq	320(%rsp), %rdi	#, tmp949
	call	secp256k1_scalar_reduce_512	#
	subl	$1, %ebx	#, ivtmp_25
	jne	.L65	#,
	leaq	320(%rsp), %rsi	#, tmp950
	leaq	352(%rsp), %rdi	#, tmp951
	movq	%rbp, %rdx	# x,
	movl	$3, %ebx	#, ivtmp_27
	call	secp256k1_scalar_mul_512	#
	leaq	352(%rsp), %rsi	#, tmp952
	leaq	320(%rsp), %rdi	#, tmp953
	call	secp256k1_scalar_reduce_512	#
.L66:
	leaq	320(%rsp), %rsi	#, tmp954
	leaq	352(%rsp), %rdi	#, tmp955
	call	secp256k1_scalar_sqr_512	#
	leaq	352(%rsp), %rsi	#, tmp956
	leaq	320(%rsp), %rdi	#, tmp957
	call	secp256k1_scalar_reduce_512	#
	subl	$1, %ebx	#, ivtmp_27
	jne	.L66	#,
	leaq	320(%rsp), %rsi	#, tmp958
	leaq	352(%rsp), %rdi	#, tmp959
	movq	%rbp, %rdx	# x,
	movl	$5, %ebx	#, ivtmp_29
	call	secp256k1_scalar_mul_512	#
	leaq	352(%rsp), %rsi	#, tmp960
	leaq	320(%rsp), %rdi	#, tmp961
	call	secp256k1_scalar_reduce_512	#
.L67:
	leaq	320(%rsp), %rsi	#, tmp962
	leaq	352(%rsp), %rdi	#, tmp963
	call	secp256k1_scalar_sqr_512	#
	leaq	352(%rsp), %rsi	#, tmp964
	leaq	320(%rsp), %rdi	#, tmp965
	call	secp256k1_scalar_reduce_512	#
	subl	$1, %ebx	#, ivtmp_29
	jne	.L67	#,
	leaq	64(%rsp), %rdx	#, tmp966
	leaq	320(%rsp), %rsi	#, tmp967
	leaq	352(%rsp), %rdi	#, tmp968
	movl	$5, %ebx	#, ivtmp_31
	call	secp256k1_scalar_mul_512	#
	leaq	352(%rsp), %rsi	#, tmp969
	leaq	320(%rsp), %rdi	#, tmp970
	call	secp256k1_scalar_reduce_512	#
	leaq	320(%rsp), %rsi	#, tmp971
	leaq	352(%rsp), %rdi	#, tmp972
	call	secp256k1_scalar_sqr_512	#
	leaq	352(%rsp), %rsi	#, tmp973
	leaq	320(%rsp), %rdi	#, tmp974
	call	secp256k1_scalar_reduce_512	#
	leaq	320(%rsp), %rsi	#, tmp975
	leaq	352(%rsp), %rdi	#, tmp976
	call	secp256k1_scalar_sqr_512	#
	leaq	352(%rsp), %rsi	#, tmp977
	leaq	320(%rsp), %rdi	#, tmp978
	call	secp256k1_scalar_reduce_512	#
	leaq	320(%rsp), %rsi	#, tmp979
	leaq	352(%rsp), %rdi	#, tmp980
	movq	%rbp, %rdx	# x,
	call	secp256k1_scalar_mul_512	#
	leaq	352(%rsp), %rsi	#, tmp981
	leaq	320(%rsp), %rdi	#, tmp982
	call	secp256k1_scalar_reduce_512	#
.L68:
	leaq	320(%rsp), %rsi	#, tmp983
	leaq	352(%rsp), %rdi	#, tmp984
	call	secp256k1_scalar_sqr_512	#
	leaq	352(%rsp), %rsi	#, tmp985
	leaq	320(%rsp), %rdi	#, tmp986
	call	secp256k1_scalar_reduce_512	#
	subl	$1, %ebx	#, ivtmp_31
	jne	.L68	#,
	leaq	320(%rsp), %rsi	#, tmp987
	leaq	352(%rsp), %rdi	#, tmp988
	movq	%rsp, %rdx	#,
	movl	$4, %ebx	#, ivtmp_34
	call	secp256k1_scalar_mul_512	#
	leaq	352(%rsp), %rsi	#, tmp989
	leaq	320(%rsp), %rdi	#, tmp990
	call	secp256k1_scalar_reduce_512	#
.L69:
	leaq	320(%rsp), %rsi	#, tmp991
	leaq	352(%rsp), %rdi	#, tmp992
	call	secp256k1_scalar_sqr_512	#
	leaq	352(%rsp), %rsi	#, tmp993
	leaq	320(%rsp), %rdi	#, tmp994
	call	secp256k1_scalar_reduce_512	#
	subl	$1, %ebx	#, ivtmp_34
	jne	.L69	#,
	leaq	320(%rsp), %rsi	#, tmp995
	leaq	352(%rsp), %rdi	#, tmp996
	movq	%rsp, %rdx	#,
	movl	$8, %ebx	#, ivtmp_36
	call	secp256k1_scalar_mul_512	#
	leaq	352(%rsp), %rsi	#, tmp997
	leaq	320(%rsp), %rdi	#, tmp998
	call	secp256k1_scalar_reduce_512	#
	leaq	320(%rsp), %rsi	#, tmp999
	leaq	352(%rsp), %rdi	#, tmp1000
	call	secp256k1_scalar_sqr_512	#
	leaq	352(%rsp), %rsi	#, tmp1001
	leaq	320(%rsp), %rdi	#, tmp1002
	call	secp256k1_scalar_reduce_512	#
	leaq	320(%rsp), %rsi	#, tmp1003
	leaq	352(%rsp), %rdi	#, tmp1004
	call	secp256k1_scalar_sqr_512	#
	leaq	352(%rsp), %rsi	#, tmp1005
	leaq	320(%rsp), %rdi	#, tmp1006
	call	secp256k1_scalar_reduce_512	#
	leaq	320(%rsp), %rsi	#, tmp1007
	leaq	352(%rsp), %rdi	#, tmp1008
	movq	%rbp, %rdx	# x,
	call	secp256k1_scalar_mul_512	#
	leaq	352(%rsp), %rsi	#, tmp1009
	leaq	320(%rsp), %rdi	#, tmp1010
	call	secp256k1_scalar_reduce_512	#
	.p2align 4,,10
	.p2align 3
.L70:
	leaq	320(%rsp), %rsi	#, tmp1011
	leaq	352(%rsp), %rdi	#, tmp1012
	call	secp256k1_scalar_sqr_512	#
	leaq	352(%rsp), %rsi	#, tmp1013
	leaq	320(%rsp), %rdi	#, tmp1014
	call	secp256k1_scalar_reduce_512	#
	subl	$1, %ebx	#, ivtmp_36
	jne	.L70	#,
	leaq	320(%rsp), %rsi	#, tmp1015
	leaq	352(%rsp), %rdi	#, tmp1016
	movq	%rsp, %rdx	#,
	movl	$3, %ebx	#, ivtmp_38
	call	secp256k1_scalar_mul_512	#
	leaq	352(%rsp), %rsi	#, tmp1017
	leaq	320(%rsp), %rdi	#, tmp1018
	call	secp256k1_scalar_reduce_512	#
.L71:
	leaq	320(%rsp), %rsi	#, tmp1019
	leaq	352(%rsp), %rdi	#, tmp1020
	call	secp256k1_scalar_sqr_512	#
	leaq	352(%rsp), %rsi	#, tmp1021
	leaq	320(%rsp), %rdi	#, tmp1022
	call	secp256k1_scalar_reduce_512	#
	subl	$1, %ebx	#, ivtmp_38
	jne	.L71	#,
	leaq	320(%rsp), %rsi	#, tmp1023
	leaq	352(%rsp), %rdi	#, tmp1024
	movq	%rsp, %rdx	#,
	movl	$3, %ebx	#, ivtmp_441
	call	secp256k1_scalar_mul_512	#
	leaq	352(%rsp), %rsi	#, tmp1025
	leaq	320(%rsp), %rdi	#, tmp1026
	call	secp256k1_scalar_reduce_512	#
.L72:
	leaq	320(%rsp), %rsi	#, tmp1027
	leaq	352(%rsp), %rdi	#, tmp1028
	call	secp256k1_scalar_sqr_512	#
	leaq	352(%rsp), %rsi	#, tmp1029
	leaq	320(%rsp), %rdi	#, tmp1030
	call	secp256k1_scalar_reduce_512	#
	subl	$1, %ebx	#, ivtmp_441
	jne	.L72	#,
	leaq	320(%rsp), %rsi	#, tmp1031
	leaq	352(%rsp), %rdi	#, tmp1032
	movq	%rbp, %rdx	# x,
	movl	$6, %ebx	#, ivtmp_465
	call	secp256k1_scalar_mul_512	#
	leaq	352(%rsp), %rsi	#, tmp1033
	leaq	320(%rsp), %rdi	#, tmp1034
	call	secp256k1_scalar_reduce_512	#
	.p2align 4,,10
	.p2align 3
.L73:
	leaq	320(%rsp), %rsi	#, tmp1035
	leaq	352(%rsp), %rdi	#, tmp1036
	call	secp256k1_scalar_sqr_512	#
	leaq	352(%rsp), %rsi	#, tmp1037
	leaq	320(%rsp), %rdi	#, tmp1038
	call	secp256k1_scalar_reduce_512	#
	subl	$1, %ebx	#, ivtmp_465
	jne	.L73	#,
	leaq	320(%rsp), %rsi	#, tmp1039
	leaq	352(%rsp), %rdi	#, tmp1040
	movq	%rbp, %rdx	# x,
	movl	$8, %ebx	#, ivtmp_477
	call	secp256k1_scalar_mul_512	#
	leaq	352(%rsp), %rsi	#, tmp1041
	leaq	320(%rsp), %rdi	#, tmp1042
	call	secp256k1_scalar_reduce_512	#
	.p2align 4,,10
	.p2align 3
.L74:
	leaq	320(%rsp), %rsi	#, tmp1043
	leaq	352(%rsp), %rdi	#, tmp1044
	call	secp256k1_scalar_sqr_512	#
	leaq	352(%rsp), %rsi	#, tmp1045
	leaq	320(%rsp), %rdi	#, tmp1046
	call	secp256k1_scalar_reduce_512	#
	subl	$1, %ebx	#, ivtmp_477
	jne	.L74	#,
	leaq	96(%rsp), %rdx	#, tmp1047
	leaq	320(%rsp), %rsi	#, tmp1048
	leaq	352(%rsp), %rdi	#, tmp1049
	call	secp256k1_scalar_mul_512	#
	leaq	352(%rsp), %rsi	#, tmp1050
	movq	%r12, %rdi	# r,
	call	secp256k1_scalar_reduce_512	#
	addq	$416, %rsp	#,
	.cfi_def_cfa_offset 32
	popq	%rbx	#
	.cfi_def_cfa_offset 24
	popq	%rbp	#
	.cfi_def_cfa_offset 16
	popq	%r12	#
	.cfi_def_cfa_offset 8
	ret
	.cfi_endproc
.LFE120:
	.size	secp256k1_scalar_inverse, .-secp256k1_scalar_inverse
	.p2align 4,,15
	.type	secp256k1_sha256_transform, @function
secp256k1_sha256_transform:
.LFB165:
	.cfi_startproc
	pushq	%r15	#
	.cfi_def_cfa_offset 16
	.cfi_offset 15, -16
	pushq	%r14	#
	.cfi_def_cfa_offset 24
	.cfi_offset 14, -24
	pushq	%r13	#
	.cfi_def_cfa_offset 32
	.cfi_offset 13, -32
	pushq	%r12	#
	.cfi_def_cfa_offset 40
	.cfi_offset 12, -40
	pushq	%rbp	#
	.cfi_def_cfa_offset 48
	.cfi_offset 6, -48
	pushq	%rbx	#
	.cfi_def_cfa_offset 56
	.cfi_offset 3, -56
	movl	4(%rdi), %ecx	# MEM[(uint32_t *)s_2(D) + 4B], b
	movl	(%rdi), %eax	# *s_2(D), a
	movq	%rdi, -8(%rsp)	# s, %sfp
	movl	%ecx, %r13d	# b, b
	movl	8(%rdi), %ecx	# MEM[(uint32_t *)s_2(D) + 8B], c
	movl	%eax, %ebx	# a, a
	movl	%r13d, -36(%rsp)	# b, %sfp
	movl	%ebx, -40(%rsp)	# a, %sfp
	movl	%ecx, %r12d	# c, c
	movl	12(%rdi), %ecx	# MEM[(uint32_t *)s_2(D) + 12B], d
	movl	%r12d, -32(%rsp)	# c, %sfp
	movl	%ecx, %r11d	# d, d
	movl	16(%rdi), %ecx	# MEM[(uint32_t *)s_2(D) + 16B], e
	movl	%r11d, -28(%rsp)	# d, %sfp
	movl	%ecx, %r14d	# e, e
	movl	20(%rdi), %ecx	# MEM[(uint32_t *)s_2(D) + 20B], f
	movl	%r14d, %edx	# e, tmp2299
	rorl	$11, %edx	#, tmp2299
	movl	%ecx, %ebp	# f, f
	movl	24(%rdi), %ecx	# MEM[(uint32_t *)s_2(D) + 24B], g
	movl	%ebp, -20(%rsp)	# f, %sfp
	movl	%ecx, %r10d	# g, g
	movl	28(%rdi), %ecx	# MEM[(uint32_t *)s_2(D) + 28B], h
	movl	%r14d, %edi	# e, tmp2298
	rorl	$6, %edi	#, tmp2298
	movl	%edi, %eax	# tmp2298, tmp2298
	movl	%ebx, %edi	# a, tmp2316
	movl	%ecx, %r8d	# h, h
	movl	(%rsi), %ecx	# *chunk_21(D), *chunk_21(D)
	xorl	%edx, %eax	# tmp2299, tmp2300
	movl	%r14d, %edx	# e, tmp2301
	andl	%r13d, %edi	# b, tmp2316
	movl	%r8d, -12(%rsp)	# h, %sfp
	roll	$7, %edx	#, tmp2301
	bswap	%ecx	# *chunk_21(D)
	xorl	%edx, %eax	# tmp2301, tmp2302
	movl	%ecx, %r15d	# *chunk_21(D), w0
	movl	%ebp, %ecx	# f, tmp2305
	leal	1116352408(%r8,%rax), %edx	#, tmp2304
	xorl	%r10d, %ecx	# g, tmp2305
	movl	%ebx, %eax	# a, tmp2309
	movl	%r15d, -88(%rsp)	# w0, %sfp
	andl	%r14d, %ecx	# e, tmp2306
	rorl	$2, %eax	#, tmp2309
	movl	%r10d, %r8d	# g, g
	xorl	%r10d, %ecx	# g, tmp2307
	movl	%r14d, %r10d	# e, tmp2320
	movl	%r8d, -16(%rsp)	# g, %sfp
	addl	%edx, %ecx	# tmp2304, tmp2308
	xorl	%ebp, %r10d	# f, tmp2320
	leal	(%rcx,%r15), %edx	#, t1
	movl	%ebx, %ecx	# a, tmp2310
	movl	4(%rsi), %r15d	# MEM[(const uint32_t *)chunk_21(D) + 4B], MEM[(const uint32_t *)chunk_21(D) + 4B]
	rorl	$13, %ecx	#, tmp2310
	xorl	%ecx, %eax	# tmp2310, tmp2311
	movl	%ebx, %ecx	# a, tmp2312
	leal	(%r11,%rdx), %r11d	#, d
	roll	$10, %ecx	#, tmp2312
	bswap	%r15d	# w1
	xorl	%ecx, %eax	# tmp2312, tmp2313
	movl	%ebx, %ecx	# a, tmp2314
	orl	%r13d, %ecx	# b, tmp2314
	andl	%r12d, %ecx	# c, tmp2315
	orl	%edi, %ecx	# tmp2316, tmp2317
	leal	1899447441(%r8,%r15), %edi	#, tmp2324
	movl	%ebx, %r8d	# a, tmp2338
	addl	%eax, %ecx	# tmp2313, t2
	movl	%r10d, %eax	# tmp2320, tmp2320
	movl	%r11d, %r10d	# d, tmp2329
	addl	%edx, %ecx	# t1, h
	andl	%r11d, %eax	# d, tmp2321
	movl	%r11d, %edx	# d, tmp2326
	xorl	%ebp, %eax	# f, tmp2322
	rorl	$6, %edx	#, tmp2326
	roll	$7, %r10d	#, tmp2329
	addl	%eax, %edi	# tmp2322, tmp2325
	movl	%edx, %eax	# tmp2326, tmp2326
	movl	%r11d, %edx	# d, tmp2327
	rorl	$11, %edx	#, tmp2327
	xorl	%eax, %edx	# tmp2326, tmp2328
	movl	%r10d, %eax	# tmp2329, tmp2329
	xorl	%edx, %eax	# tmp2328, tmp2330
	movl	%ecx, %edx	# h, tmp2331
	addl	%edi, %eax	# tmp2325, t1
	rorl	$2, %edx	#, tmp2331
	leal	(%r12,%rax), %r9d	#, c
	movl	%ecx, %r12d	# h, tmp2332
	rorl	$13, %r12d	#, tmp2332
	movl	%r12d, %edi	# tmp2332, tmp2332
	movl	%r14d, %r12d	# e, e
	xorl	%edx, %edi	# tmp2331, tmp2333
	movl	%ecx, %edx	# h, tmp2334
	andl	%ecx, %r8d	# h, tmp2338
	roll	$10, %edx	#, tmp2334
	movl	%r12d, -24(%rsp)	# e, %sfp
	xorl	%edx, %edi	# tmp2334, tmp2335
	movl	%ebx, %edx	# a, tmp2336
	orl	%ecx, %edx	# h, tmp2336
	andl	%r13d, %edx	# b, tmp2337
	orl	%r8d, %edx	# tmp2338, tmp2339
	addl	%edi, %edx	# tmp2335, t2
	addl	%eax, %edx	# t1, g
	movl	8(%rsi), %eax	# MEM[(const uint32_t *)chunk_21(D) + 8B], MEM[(const uint32_t *)chunk_21(D) + 8B]
	movl	%eax, %edi	# MEM[(const uint32_t *)chunk_21(D) + 8B], MEM[(const uint32_t *)chunk_21(D) + 8B]
	bswap	%edi	# MEM[(const uint32_t *)chunk_21(D) + 8B]
	movl	%edi, %r8d	# MEM[(const uint32_t *)chunk_21(D) + 8B], w2
	movl	%r14d, %edi	# e, tmp2342
	xorl	%r11d, %edi	# d, tmp2342
	movl	%r8d, -112(%rsp)	# w2, %sfp
	leal	-1245643825(%rbp,%r8), %r8d	#, tmp2346
	andl	%r9d, %edi	# c, tmp2343
	movl	%r9d, %ebp	# c, tmp2348
	xorl	%r14d, %edi	# e, tmp2344
	rorl	$6, %ebp	#, tmp2348
	movl	12(%rsi), %r14d	# MEM[(const uint32_t *)chunk_21(D) + 12B], MEM[(const uint32_t *)chunk_21(D) + 12B]
	addl	%edi, %r8d	# tmp2344, tmp2347
	movl	%ebp, %edi	# tmp2348, tmp2348
	movl	%r9d, %ebp	# c, tmp2349
	rorl	$11, %ebp	#, tmp2349
	movl	%ebp, %eax	# tmp2349, tmp2349
	movl	%r9d, %ebp	# c, tmp2351
	bswap	%r14d	# MEM[(const uint32_t *)chunk_21(D) + 12B]
	xorl	%edi, %eax	# tmp2348, tmp2350
	roll	$7, %ebp	#, tmp2351
	movl	%r14d, -108(%rsp)	# w3, %sfp
	xorl	%ebp, %eax	# tmp2351, tmp2352
	leal	(%r8,%rax), %edi	#, t1
	leal	0(%r13,%rdi), %ebp	#, b
	movl	%edx, %r13d	# g, tmp2353
	rorl	$2, %r13d	#, tmp2353
	movl	%r13d, %eax	# tmp2353, tmp2353
	movl	%edx, %r13d	# g, tmp2354
	rorl	$13, %r13d	#, tmp2354
	movl	%r13d, %r8d	# tmp2354, tmp2354
	movl	%edx, %r13d	# g, tmp2356
	xorl	%eax, %r8d	# tmp2353, tmp2355
	roll	$10, %r13d	#, tmp2356
	xorl	%r13d, %r8d	# tmp2356, tmp2357
	movl	%ecx, %r13d	# h, tmp2358
	orl	%edx, %r13d	# g, tmp2358
	movl	%r13d, %eax	# tmp2358, tmp2358
	movl	%ecx, %r13d	# h, tmp2360
	andl	%edx, %r13d	# g, tmp2360
	andl	%ebx, %eax	# a, tmp2359
	orl	%r13d, %eax	# tmp2360, tmp2361
	movl	%r11d, %r13d	# d, tmp2364
	xorl	%r9d, %r13d	# c, tmp2364
	addl	%r8d, %eax	# tmp2357, t2
	leal	-373957723(%r12,%r14), %r8d	#, tmp2368
	addl	%edi, %eax	# t1, f
	movl	%r13d, %edi	# tmp2364, tmp2364
	movl	%ebp, %r12d	# b, tmp2370
	andl	%ebp, %edi	# b, tmp2365
	movl	16(%rsi), %r13d	# MEM[(const uint32_t *)chunk_21(D) + 16B], MEM[(const uint32_t *)chunk_21(D) + 16B]
	xorl	%r11d, %edi	# d, tmp2366
	addl	%edi, %r8d	# tmp2366, tmp2369
	rorl	$6, %r12d	#, tmp2370
	movl	%r12d, %edi	# tmp2370, tmp2370
	movl	%ebp, %r12d	# b, tmp2371
	bswap	%r13d	# MEM[(const uint32_t *)chunk_21(D) + 16B]
	rorl	$11, %r12d	#, tmp2371
	leal	961987163(%r11,%r13), %r11d	#, tmp2390
	movl	%r13d, -104(%rsp)	# w4, %sfp
	movl	%r12d, %r10d	# tmp2371, tmp2371
	movl	%ebp, %r12d	# b, tmp2373
	xorl	%edi, %r10d	# tmp2370, tmp2372
	roll	$7, %r12d	#, tmp2373
	xorl	%r12d, %r10d	# tmp2373, tmp2374
	movl	%eax, %r12d	# f, tmp2375
	rorl	$2, %r12d	#, tmp2375
	leal	(%r8,%r10), %edi	#, t1
	movl	%r12d, %r10d	# tmp2375, tmp2375
	movl	%eax, %r12d	# f, tmp2376
	rorl	$13, %r12d	#, tmp2376
	leal	(%rbx,%rdi), %r14d	#, a
	movl	%r12d, %r8d	# tmp2376, tmp2376
	movl	%eax, %r12d	# f, tmp2378
	xorl	%r10d, %r8d	# tmp2375, tmp2377
	roll	$10, %r12d	#, tmp2378
	xorl	%r12d, %r8d	# tmp2378, tmp2379
	movl	%edx, %r12d	# g, tmp2380
	orl	%eax, %r12d	# f, tmp2380
	movl	%r12d, %r10d	# tmp2380, tmp2380
	movl	%edx, %r12d	# g, tmp2382
	andl	%eax, %r12d	# f, tmp2382
	andl	%ecx, %r10d	# h, tmp2381
	orl	%r12d, %r10d	# tmp2382, tmp2383
	movl	%r9d, %r12d	# c, tmp2386
	xorl	%ebp, %r12d	# b, tmp2386
	addl	%r8d, %r10d	# tmp2379, t2
	addl	%edi, %r10d	# t1, e
	movl	%r12d, %edi	# tmp2386, tmp2386
	movl	%r14d, %r12d	# a, tmp2392
	andl	%r14d, %edi	# a, tmp2387
	rorl	$6, %r12d	#, tmp2392
	xorl	%r9d, %edi	# c, tmp2388
	addl	%edi, %r11d	# tmp2388, tmp2391
	movl	%r12d, %edi	# tmp2392, tmp2392
	movl	%r14d, %r12d	# a, tmp2393
	rorl	$11, %r12d	#, tmp2393
	movl	%r12d, %r8d	# tmp2393, tmp2393
	movl	%r14d, %r12d	# a, tmp2395
	xorl	%edi, %r8d	# tmp2392, tmp2394
	roll	$7, %r12d	#, tmp2395
	xorl	%r12d, %r8d	# tmp2395, tmp2396
	movl	%r10d, %r12d	# e, tmp2397
	rorl	$2, %r12d	#, tmp2397
	leal	(%r11,%r8), %edi	#, t1
	movl	%r12d, %r8d	# tmp2397, tmp2397
	movl	%r10d, %r12d	# e, tmp2398
	rorl	$13, %r12d	#, tmp2398
	leal	(%rcx,%rdi), %r11d	#, h
	movl	%r12d, %ecx	# tmp2398, tmp2398
	movl	%r10d, %r12d	# e, tmp2400
	xorl	%r8d, %ecx	# tmp2397, tmp2399
	roll	$10, %r12d	#, tmp2400
	xorl	%r12d, %ecx	# tmp2400, tmp2401
	movl	%eax, %r12d	# f, tmp2402
	orl	%r10d, %r12d	# e, tmp2402
	movl	%r12d, %r8d	# tmp2402, tmp2402
	movl	%eax, %r12d	# f, tmp2404
	andl	%edx, %r8d	# g, tmp2403
	andl	%r10d, %r12d	# e, tmp2404
	orl	%r12d, %r8d	# tmp2404, tmp2405
	movl	20(%rsi), %r12d	# MEM[(const uint32_t *)chunk_21(D) + 20B], MEM[(const uint32_t *)chunk_21(D) + 20B]
	addl	%ecx, %r8d	# tmp2401, t2
	addl	%edi, %r8d	# t1, d
	movl	%ebp, %edi	# b, tmp2408
	xorl	%r14d, %edi	# a, tmp2408
	bswap	%r12d	# MEM[(const uint32_t *)chunk_21(D) + 20B]
	movl	%r12d, -80(%rsp)	# w5, %sfp
	movl	%edi, %ecx	# tmp2408, tmp2408
	leal	1508970993(%r9,%r12), %r9d	#, tmp2412
	movl	%r11d, %edi	# h, tmp2415
	movl	%r11d, %r12d	# h, tmp2414
	andl	%r11d, %ecx	# h, tmp2409
	rorl	$6, %r12d	#, tmp2414
	rorl	$11, %edi	#, tmp2415
	xorl	%ebp, %ecx	# b, tmp2410
	xorl	%r12d, %edi	# tmp2414, tmp2416
	movl	%r11d, %r12d	# h, tmp2417
	addl	%ecx, %r9d	# tmp2410, tmp2413
	roll	$7, %r12d	#, tmp2417
	xorl	%r12d, %edi	# tmp2417, tmp2418
	leal	(%r9,%rdi), %ecx	#, t1
	movl	%r8d, %r9d	# d, tmp2422
	roll	$10, %r9d	#, tmp2422
	leal	(%rdx,%rcx), %ebx	#, g
	movl	%r8d, %edx	# d, tmp2419
	rorl	$2, %edx	#, tmp2419
	movl	%edx, %edi	# tmp2419, tmp2419
	movl	%r8d, %edx	# d, tmp2420
	rorl	$13, %edx	#, tmp2420
	xorl	%edi, %edx	# tmp2419, tmp2421
	xorl	%r9d, %edx	# tmp2422, tmp2423
	movl	%r10d, %r9d	# e, tmp2424
	orl	%r8d, %r9d	# d, tmp2424
	movl	%r9d, %edi	# tmp2424, tmp2424
	movl	%r10d, %r9d	# e, tmp2426
	andl	%r8d, %r9d	# d, tmp2426
	andl	%eax, %edi	# f, tmp2425
	orl	%r9d, %edi	# tmp2426, tmp2427
	movl	%ebx, %r9d	# g, tmp2437
	addl	%edx, %edi	# tmp2423, t2
	movl	24(%rsi), %edx	# MEM[(const uint32_t *)chunk_21(D) + 24B], MEM[(const uint32_t *)chunk_21(D) + 24B]
	rorl	$11, %r9d	#, tmp2437
	addl	%ecx, %edi	# t1, c
	bswap	%edx	# MEM[(const uint32_t *)chunk_21(D) + 24B]
	movl	%edx, %ecx	# MEM[(const uint32_t *)chunk_21(D) + 24B], w6
	movl	%r14d, %edx	# a, tmp2430
	xorl	%r11d, %edx	# h, tmp2430
	movl	%ecx, -72(%rsp)	# w6, %sfp
	leal	-1841331548(%rbp,%rcx), %ecx	#, tmp2434
	andl	%ebx, %edx	# g, tmp2431
	movl	%edi, %ebp	# c, tmp2442
	xorl	%r14d, %edx	# a, tmp2432
	addl	%edx, %ecx	# tmp2432, tmp2435
	movl	%ebx, %edx	# g, tmp2436
	rorl	$6, %edx	#, tmp2436
	xorl	%edx, %r9d	# tmp2436, tmp2438
	movl	%ebx, %edx	# g, tmp2439
	roll	$7, %edx	#, tmp2439
	rorl	$13, %ebp	#, tmp2442
	xorl	%edx, %r9d	# tmp2439, tmp2440
	leal	(%rcx,%r9), %edx	#, t1
	movl	%edi, %r9d	# c, tmp2441
	movl	%ebp, %ecx	# tmp2442, tmp2442
	rorl	$2, %r9d	#, tmp2441
	movl	%r8d, %ebp	# d, tmp2448
	xorl	%r9d, %ecx	# tmp2441, tmp2443
	movl	%edi, %r9d	# c, tmp2444
	andl	%edi, %ebp	# c, tmp2448
	roll	$10, %r9d	#, tmp2444
	addl	%edx, %eax	# t1, f
	xorl	%r9d, %ecx	# tmp2444, tmp2445
	movl	%r8d, %r9d	# d, tmp2446
	movl	%eax, %r12d	# f, tmp2459
	orl	%edi, %r9d	# c, tmp2446
	rorl	$11, %r12d	#, tmp2459
	andl	%r10d, %r9d	# e, tmp2447
	orl	%ebp, %r9d	# tmp2448, tmp2449
	addl	%ecx, %r9d	# tmp2445, t2
	movl	%r12d, %ecx	# tmp2459, tmp2459
	addl	%edx, %r9d	# t1, b
	movl	28(%rsi), %edx	# MEM[(const uint32_t *)chunk_21(D) + 28B], MEM[(const uint32_t *)chunk_21(D) + 28B]
	movl	%r9d, %r12d	# b, tmp2466
	roll	$10, %r12d	#, tmp2466
	bswap	%edx	# MEM[(const uint32_t *)chunk_21(D) + 28B]
	movl	%edx, %ebp	# MEM[(const uint32_t *)chunk_21(D) + 28B], w7
	movl	%r11d, %edx	# h, tmp2452
	xorl	%ebx, %edx	# g, tmp2452
	movl	%ebp, -68(%rsp)	# w7, %sfp
	leal	-1424204075(%r14,%rbp), %ebp	#, tmp2456
	andl	%eax, %edx	# f, tmp2453
	xorl	%r11d, %edx	# h, tmp2454
	addl	%edx, %ebp	# tmp2454, tmp2457
	movl	%eax, %edx	# f, tmp2458
	rorl	$6, %edx	#, tmp2458
	xorl	%edx, %ecx	# tmp2458, tmp2460
	movl	%eax, %edx	# f, tmp2461
	roll	$7, %edx	#, tmp2461
	xorl	%edx, %ecx	# tmp2461, tmp2462
	leal	0(%rbp,%rcx), %edx	#, t1
	movl	%r9d, %ebp	# b, tmp2463
	rorl	$2, %ebp	#, tmp2463
	movl	%ebp, %ecx	# tmp2463, tmp2463
	movl	%r9d, %ebp	# b, tmp2464
	addl	%edx, %r10d	# t1, e
	rorl	$13, %ebp	#, tmp2464
	xorl	%ecx, %ebp	# tmp2463, tmp2465
	xorl	%r12d, %ebp	# tmp2466, tmp2467
	movl	%edi, %r12d	# c, tmp2468
	orl	%r9d, %r12d	# b, tmp2468
	movl	%r12d, %ecx	# tmp2468, tmp2468
	movl	%edi, %r12d	# c, tmp2470
	andl	%r9d, %r12d	# b, tmp2470
	andl	%r8d, %ecx	# d, tmp2469
	orl	%r12d, %ecx	# tmp2470, tmp2471
	movl	%r9d, %r12d	# b, tmp2492
	addl	%ebp, %ecx	# tmp2467, t2
	movl	%ebx, %ebp	# g, tmp2474
	addl	%edx, %ecx	# t1, a
	movl	32(%rsi), %edx	# MEM[(const uint32_t *)chunk_21(D) + 32B], MEM[(const uint32_t *)chunk_21(D) + 32B]
	xorl	%eax, %ebp	# f, tmp2474
	andl	%r10d, %ebp	# e, tmp2475
	andl	%ecx, %r12d	# a, tmp2492
	xorl	%ebx, %ebp	# g, tmp2476
	bswap	%edx	# MEM[(const uint32_t *)chunk_21(D) + 32B]
	leal	-670586216(%r11,%rdx), %r11d	#, tmp2478
	movl	%edx, -64(%rsp)	# w8, %sfp
	movl	%r10d, %edx	# e, tmp2481
	rorl	$11, %edx	#, tmp2481
	addl	%r11d, %ebp	# tmp2478, tmp2479
	movl	%r10d, %r11d	# e, tmp2480
	rorl	$6, %r11d	#, tmp2480
	xorl	%r11d, %edx	# tmp2480, tmp2482
	movl	%r10d, %r11d	# e, tmp2483
	roll	$7, %r11d	#, tmp2483
	xorl	%r11d, %edx	# tmp2483, tmp2484
	leal	0(%rbp,%rdx), %r11d	#, t1
	movl	%ecx, %edx	# a, tmp2485
	movl	%ecx, %ebp	# a, tmp2486
	rorl	$2, %edx	#, tmp2485
	rorl	$13, %ebp	#, tmp2486
	xorl	%edx, %ebp	# tmp2485, tmp2487
	movl	%ecx, %edx	# a, tmp2488
	addl	%r11d, %r8d	# t1, d
	roll	$10, %edx	#, tmp2488
	movl	%r8d, %r13d	# d, tmp2503
	xorl	%edx, %ebp	# tmp2488, tmp2489
	movl	%r9d, %edx	# b, tmp2490
	rorl	$11, %r13d	#, tmp2503
	orl	%ecx, %edx	# a, tmp2490
	andl	%edi, %edx	# c, tmp2491
	orl	%r12d, %edx	# tmp2492, tmp2493
	movl	%ecx, %r12d	# a, tmp2514
	addl	%ebp, %edx	# tmp2489, t2
	addl	%r11d, %edx	# t1, h
	movl	36(%rsi), %r11d	# MEM[(const uint32_t *)chunk_21(D) + 36B], MEM[(const uint32_t *)chunk_21(D) + 36B]
	bswap	%r11d	# MEM[(const uint32_t *)chunk_21(D) + 36B]
	movl	%r11d, %ebp	# MEM[(const uint32_t *)chunk_21(D) + 36B], w9
	movl	%eax, %r11d	# f, tmp2496
	xorl	%r10d, %r11d	# e, tmp2496
	leal	310598401(%rbx,%rbp), %ebx	#, tmp2500
	movl	%ebp, -100(%rsp)	# w9, %sfp
	andl	%r8d, %r11d	# d, tmp2497
	xorl	%eax, %r11d	# f, tmp2498
	addl	%r11d, %ebx	# tmp2498, tmp2501
	movl	%r8d, %r11d	# d, tmp2502
	rorl	$6, %r11d	#, tmp2502
	xorl	%r11d, %r13d	# tmp2502, tmp2504
	movl	%r8d, %r11d	# d, tmp2505
	roll	$7, %r11d	#, tmp2505
	xorl	%r11d, %r13d	# tmp2505, tmp2506
	andl	%edx, %r12d	# h, tmp2514
	leal	(%rbx,%r13), %r11d	#, t1
	movl	%edx, %r13d	# h, tmp2507
	movl	%edx, %ebx	# h, tmp2508
	rorl	$2, %r13d	#, tmp2507
	rorl	$13, %ebx	#, tmp2508
	xorl	%r13d, %ebx	# tmp2507, tmp2509
	movl	%edx, %r13d	# h, tmp2510
	addl	%r11d, %edi	# t1, c
	roll	$10, %r13d	#, tmp2510
	xorl	%r13d, %ebx	# tmp2510, tmp2511
	movl	%ecx, %r13d	# a, tmp2512
	orl	%edx, %r13d	# h, tmp2512
	andl	%r9d, %r13d	# b, tmp2513
	orl	%r12d, %r13d	# tmp2514, tmp2515
	addl	%ebx, %r13d	# tmp2511, t2
	movl	%edi, %ebx	# c, tmp2524
	addl	%r11d, %r13d	# t1, g
	movl	40(%rsi), %r11d	# MEM[(const uint32_t *)chunk_21(D) + 40B], MEM[(const uint32_t *)chunk_21(D) + 40B]
	rorl	$6, %ebx	#, tmp2524
	bswap	%r11d	# MEM[(const uint32_t *)chunk_21(D) + 40B]
	movl	%r11d, %r12d	# MEM[(const uint32_t *)chunk_21(D) + 40B], w10
	movl	%r10d, %r11d	# e, tmp2518
	xorl	%r8d, %r11d	# d, tmp2518
	leal	607225278(%rax,%r12), %eax	#, tmp2522
	movl	%r12d, -96(%rsp)	# w10, %sfp
	andl	%edi, %r11d	# c, tmp2519
	xorl	%r10d, %r11d	# e, tmp2520
	addl	%eax, %r11d	# tmp2522, tmp2523
	movl	%ebx, %eax	# tmp2524, tmp2524
	movl	%edi, %ebx	# c, tmp2525
	rorl	$11, %ebx	#, tmp2525
	movl	%ebx, %r14d	# tmp2525, tmp2525
	movl	%edi, %ebx	# c, tmp2527
	xorl	%eax, %r14d	# tmp2524, tmp2526
	roll	$7, %ebx	#, tmp2527
	xorl	%ebx, %r14d	# tmp2527, tmp2528
	movl	%r13d, %ebx	# g, tmp2532
	leal	(%r11,%r14), %eax	#, t1
	movl	%r13d, %r11d	# g, tmp2529
	roll	$10, %ebx	#, tmp2532
	rorl	$2, %r11d	#, tmp2529
	movl	%r11d, %r14d	# tmp2529, tmp2529
	movl	%r13d, %r11d	# g, tmp2530
	addl	%eax, %r9d	# t1, b
	rorl	$13, %r11d	#, tmp2530
	xorl	%r14d, %r11d	# tmp2529, tmp2531
	xorl	%ebx, %r11d	# tmp2532, tmp2533
	movl	%edx, %ebx	# h, tmp2534
	orl	%r13d, %ebx	# g, tmp2534
	movl	%ebx, %r14d	# tmp2534, tmp2534
	movl	%edx, %ebx	# h, tmp2536
	andl	%r13d, %ebx	# g, tmp2536
	andl	%ecx, %r14d	# a, tmp2535
	orl	%ebx, %r14d	# tmp2536, tmp2537
	movl	%r8d, %ebx	# d, tmp2540
	addl	%r11d, %r14d	# tmp2533, t2
	xorl	%edi, %ebx	# c, tmp2540
	addl	%eax, %r14d	# t1, f
	movl	44(%rsi), %eax	# MEM[(const uint32_t *)chunk_21(D) + 44B], MEM[(const uint32_t *)chunk_21(D) + 44B]
	movl	%eax, %r11d	# MEM[(const uint32_t *)chunk_21(D) + 44B], MEM[(const uint32_t *)chunk_21(D) + 44B]
	movl	%ebx, %eax	# tmp2540, tmp2540
	movl	%r9d, %ebx	# b, tmp2546
	bswap	%r11d	# MEM[(const uint32_t *)chunk_21(D) + 44B]
	andl	%r9d, %eax	# b, tmp2541
	rorl	$6, %ebx	#, tmp2546
	leal	1426881987(%r10,%r11), %r10d	#, tmp2544
	xorl	%r8d, %eax	# d, tmp2542
	movl	%r11d, -76(%rsp)	# w11, %sfp
	movl	%r13d, %r11d	# g, tmp2558
	addl	%eax, %r10d	# tmp2542, tmp2545
	movl	%ebx, %eax	# tmp2546, tmp2546
	movl	%r9d, %ebx	# b, tmp2547
	rorl	$11, %ebx	#, tmp2547
	andl	%r14d, %r11d	# f, tmp2558
	movl	%ebx, %r12d	# tmp2547, tmp2547
	movl	%r9d, %ebx	# b, tmp2549
	xorl	%eax, %r12d	# tmp2546, tmp2548
	roll	$7, %ebx	#, tmp2549
	xorl	%ebx, %r12d	# tmp2549, tmp2550
	movl	%r14d, %ebx	# f, tmp2554
	leal	(%r10,%r12), %eax	#, t1
	movl	%r14d, %r10d	# f, tmp2551
	roll	$10, %ebx	#, tmp2554
	rorl	$2, %r10d	#, tmp2551
	movl	%r10d, %r12d	# tmp2551, tmp2551
	movl	%r14d, %r10d	# f, tmp2552
	addl	%eax, %ecx	# t1, a
	rorl	$13, %r10d	#, tmp2552
	xorl	%r12d, %r10d	# tmp2551, tmp2553
	xorl	%ebx, %r10d	# tmp2554, tmp2555
	movl	%r13d, %ebx	# g, tmp2556
	orl	%r14d, %ebx	# f, tmp2556
	movl	%ebx, %r12d	# tmp2556, tmp2556
	movl	56(%rsi), %ebx	# MEM[(const uint32_t *)chunk_21(D) + 56B], MEM[(const uint32_t *)chunk_21(D) + 56B]
	andl	%edx, %r12d	# h, tmp2557
	orl	%r11d, %r12d	# tmp2558, tmp2559
	movl	60(%rsi), %r11d	# MEM[(const uint32_t *)chunk_21(D) + 60B], MEM[(const uint32_t *)chunk_21(D) + 60B]
	addl	%r10d, %r12d	# tmp2555, t2
	movl	%edi, %r10d	# c, tmp2562
	bswap	%ebx	# w14
	addl	%eax, %r12d	# t1, e
	movl	48(%rsi), %eax	# MEM[(const uint32_t *)chunk_21(D) + 48B], MEM[(const uint32_t *)chunk_21(D) + 48B]
	xorl	%r9d, %r10d	# b, tmp2562
	bswap	%r11d	# w15
	movl	%eax, %ebp	# MEM[(const uint32_t *)chunk_21(D) + 48B], MEM[(const uint32_t *)chunk_21(D) + 48B]
	movl	%r10d, %eax	# tmp2562, tmp2562
	movl	%ecx, %r10d	# a, tmp2568
	bswap	%ebp	# MEM[(const uint32_t *)chunk_21(D) + 48B]
	andl	%ecx, %eax	# a, tmp2563
	rorl	$6, %r10d	#, tmp2568
	leal	1925078388(%r8,%rbp), %r8d	#, tmp2566
	xorl	%edi, %eax	# c, tmp2564
	movl	%ebp, -60(%rsp)	# w12, %sfp
	addl	%eax, %r8d	# tmp2564, tmp2567
	movl	%r10d, %eax	# tmp2568, tmp2568
	movl	%ecx, %r10d	# a, tmp2569
	rorl	$11, %r10d	#, tmp2569
	movl	%r10d, %ebp	# tmp2569, tmp2569
	movl	%ecx, %r10d	# a, tmp2571
	xorl	%eax, %ebp	# tmp2568, tmp2570
	roll	$7, %r10d	#, tmp2571
	xorl	%r10d, %ebp	# tmp2571, tmp2572
	movl	%r12d, %r10d	# e, tmp2576
	leal	(%r8,%rbp), %eax	#, t1
	movl	%r12d, %r8d	# e, tmp2573
	addl	%eax, %edx	# t1, h
	rorl	$2, %r8d	#, tmp2573
	roll	$10, %r10d	#, tmp2576
	movl	%r8d, %ebp	# tmp2573, tmp2573
	movl	%r12d, %r8d	# e, tmp2574
	rorl	$13, %r8d	#, tmp2574
	xorl	%ebp, %r8d	# tmp2573, tmp2575
	xorl	%r10d, %r8d	# tmp2576, tmp2577
	movl	%r14d, %r10d	# f, tmp2578
	orl	%r12d, %r10d	# e, tmp2578
	movl	%r10d, %ebp	# tmp2578, tmp2578
	movl	%r14d, %r10d	# f, tmp2580
	andl	%r12d, %r10d	# e, tmp2580
	andl	%r13d, %ebp	# g, tmp2579
	orl	%r10d, %ebp	# tmp2580, tmp2581
	movl	%r9d, %r10d	# b, tmp2584
	addl	%r8d, %ebp	# tmp2577, t2
	xorl	%ecx, %r10d	# a, tmp2584
	addl	%eax, %ebp	# t1, d
	movl	52(%rsi), %eax	# MEM[(const uint32_t *)chunk_21(D) + 52B], MEM[(const uint32_t *)chunk_21(D) + 52B]
	movl	%edx, %esi	# h, tmp2628
	movl	%eax, %r8d	# MEM[(const uint32_t *)chunk_21(D) + 52B], MEM[(const uint32_t *)chunk_21(D) + 52B]
	movl	%r10d, %eax	# tmp2584, tmp2584
	movl	%edx, %r10d	# h, tmp2590
	bswap	%r8d	# MEM[(const uint32_t *)chunk_21(D) + 52B]
	andl	%edx, %eax	# h, tmp2585
	rorl	$6, %r10d	#, tmp2590
	leal	-2132889090(%rdi,%r8), %edi	#, tmp2588
	xorl	%r9d, %eax	# b, tmp2586
	movl	%r8d, -92(%rsp)	# w13, %sfp
	leal	-1680079193(%r9,%rbx), %r9d	#, tmp2610
	addl	%eax, %edi	# tmp2586, tmp2589
	movl	%r10d, %eax	# tmp2590, tmp2590
	movl	%edx, %r10d	# h, tmp2591
	rorl	$11, %r10d	#, tmp2591
	movl	%r10d, %r8d	# tmp2591, tmp2591
	movl	%edx, %r10d	# h, tmp2593
	xorl	%eax, %r8d	# tmp2590, tmp2592
	roll	$7, %r10d	#, tmp2593
	xorl	%r10d, %r8d	# tmp2593, tmp2594
	movl	%ebp, %r10d	# d, tmp2598
	leal	(%rdi,%r8), %eax	#, t1
	movl	%ebp, %edi	# d, tmp2595
	roll	$10, %r10d	#, tmp2598
	rorl	$2, %edi	#, tmp2595
	movl	%edi, %r8d	# tmp2595, tmp2595
	movl	%ebp, %edi	# d, tmp2596
	addl	%eax, %r13d	# t1, g
	rorl	$13, %edi	#, tmp2596
	xorl	%r8d, %edi	# tmp2595, tmp2597
	xorl	%r10d, %edi	# tmp2598, tmp2599
	movl	%r12d, %r10d	# e, tmp2600
	orl	%ebp, %r10d	# d, tmp2600
	movl	%r10d, %r8d	# tmp2600, tmp2600
	movl	%r12d, %r10d	# e, tmp2602
	andl	%ebp, %r10d	# d, tmp2602
	andl	%r14d, %r8d	# f, tmp2601
	orl	%r10d, %r8d	# tmp2602, tmp2603
	movl	%r13d, %r10d	# g, tmp2615
	addl	%edi, %r8d	# tmp2599, t2
	movl	%ecx, %edi	# a, tmp2606
	addl	%eax, %r8d	# t1, c
	xorl	%edx, %edi	# h, tmp2606
	roll	$7, %r10d	#, tmp2615
	movl	%edi, %eax	# tmp2606, tmp2606
	movl	%r13d, %edi	# g, tmp2612
	xorl	%r13d, %esi	# g, tmp2628
	andl	%r13d, %eax	# g, tmp2607
	rorl	$6, %edi	#, tmp2612
	xorl	%ecx, %eax	# a, tmp2608
	leal	-1046744716(%rcx,%r11), %ecx	#, tmp2632
	addl	%eax, %r9d	# tmp2608, tmp2611
	movl	%edi, %eax	# tmp2612, tmp2612
	movl	%r13d, %edi	# g, tmp2613
	rorl	$11, %edi	#, tmp2613
	xorl	%eax, %edi	# tmp2612, tmp2614
	xorl	%r10d, %edi	# tmp2615, tmp2616
	movl	%ebp, %r10d	# d, tmp2624
	leal	(%r9,%rdi), %eax	#, t1
	movl	%r8d, %r9d	# c, tmp2617
	andl	%r8d, %r10d	# c, tmp2624
	rorl	$2, %r9d	#, tmp2617
	movl	%r9d, %edi	# tmp2617, tmp2617
	movl	%r8d, %r9d	# c, tmp2618
	addl	%eax, %r14d	# t1, f
	rorl	$13, %r9d	#, tmp2618
	xorl	%edi, %r9d	# tmp2617, tmp2619
	movl	%r8d, %edi	# c, tmp2620
	roll	$10, %edi	#, tmp2620
	xorl	%edi, %r9d	# tmp2620, tmp2621
	movl	%ebp, %edi	# d, tmp2622
	orl	%r8d, %edi	# c, tmp2622
	andl	%r12d, %edi	# e, tmp2623
	orl	%r10d, %edi	# tmp2624, tmp2625
	addl	%r9d, %edi	# tmp2621, t2
	movl	%r14d, %r9d	# f, tmp2637
	addl	%eax, %edi	# t1, b
	movl	%esi, %eax	# tmp2628, tmp2628
	movl	%r14d, %esi	# f, tmp2634
	andl	%r14d, %eax	# f, tmp2629
	rorl	$6, %esi	#, tmp2634
	roll	$7, %r9d	#, tmp2637
	xorl	%edx, %eax	# h, tmp2630
	addl	%eax, %ecx	# tmp2630, tmp2633
	movl	%esi, %eax	# tmp2634, tmp2634
	movl	%r14d, %esi	# f, tmp2635
	rorl	$11, %esi	#, tmp2635
	xorl	%eax, %esi	# tmp2634, tmp2636
	xorl	%r9d, %esi	# tmp2637, tmp2638
	movl	%edi, %r9d	# b, tmp2640
	leal	(%rcx,%rsi), %eax	#, t1
	movl	%edi, %esi	# b, tmp2639
	addl	%eax, %r12d	# t1, e
	rorl	$2, %esi	#, tmp2639
	rorl	$13, %r9d	#, tmp2640
	movl	%r9d, %ecx	# tmp2640, tmp2640
	movl	%r8d, %r9d	# c, tmp2646
	xorl	%esi, %ecx	# tmp2639, tmp2641
	movl	%edi, %esi	# b, tmp2642
	andl	%edi, %r9d	# b, tmp2646
	roll	$10, %esi	#, tmp2642
	xorl	%esi, %ecx	# tmp2642, tmp2643
	movl	%r8d, %esi	# c, tmp2644
	orl	%edi, %esi	# b, tmp2644
	andl	%ebp, %esi	# d, tmp2645
	orl	%r9d, %esi	# tmp2646, tmp2647
	movl	%ebx, %r9d	# w14, tmp2649
	roll	$15, %r9d	#, tmp2649
	addl	%ecx, %esi	# tmp2643, t2
	movl	%r9d, %r10d	# tmp2649, tmp2649
	movl	%ebx, %r9d	# w14, tmp2650
	addl	%eax, %esi	# t1, a
	roll	$13, %r9d	#, tmp2650
	movl	%r9d, %eax	# tmp2650, tmp2650
	movl	%ebx, %r9d	# w14, tmp2652
	shrl	$10, %r9d	#, tmp2652
	xorl	%r10d, %eax	# tmp2649, tmp2651
	movl	%r9d, %r10d	# tmp2652, tmp2652
	movl	-88(%rsp), %r9d	# %sfp, w0
	addl	-100(%rsp), %r9d	# %sfp, w0
	xorl	%eax, %r10d	# tmp2651, tmp2653
	leal	(%r10,%r9), %eax	#, _2597
	movl	%r15d, %r9d	# w1, tmp2655
	rorl	$7, %r9d	#, tmp2655
	movl	%r9d, %ecx	# tmp2655, tmp2655
	movl	%r15d, %r9d	# w1, tmp2656
	roll	$14, %r9d	#, tmp2656
	movl	%r9d, %r10d	# tmp2656, tmp2656
	movl	%r15d, %r9d	# w1, tmp2658
	xorl	%ecx, %r10d	# tmp2655, tmp2657
	shrl	$3, %r9d	#, tmp2658
	xorl	%r9d, %r10d	# tmp2658, tmp2659
	movl	%r13d, %r9d	# g, tmp2660
	xorl	%r14d, %r9d	# f, tmp2660
	addl	%eax, %r10d	# _2597, w0
	movl	%r9d, %eax	# tmp2660, tmp2660
	leal	-459576895(%rdx,%r10), %edx	#, tmp2664
	movl	%r12d, %r9d	# e, tmp2666
	andl	%r12d, %eax	# e, tmp2661
	rorl	$6, %r9d	#, tmp2666
	xorl	%r13d, %eax	# g, tmp2662
	addl	%eax, %edx	# tmp2662, tmp2665
	movl	%r9d, %eax	# tmp2666, tmp2666
	movl	%r12d, %r9d	# e, tmp2667
	rorl	$11, %r9d	#, tmp2667
	movl	%r9d, %ecx	# tmp2667, tmp2667
	movl	%r12d, %r9d	# e, tmp2669
	xorl	%eax, %ecx	# tmp2666, tmp2668
	roll	$7, %r9d	#, tmp2669
	xorl	%r9d, %ecx	# tmp2669, tmp2670
	movl	%esi, %r9d	# a, tmp2671
	leal	(%rdx,%rcx), %eax	#, t1
	addl	%eax, %ebp	# t1, d
	rorl	$2, %r9d	#, tmp2671
	addl	-96(%rsp), %r15d	# %sfp, tmp2686
	movl	%r9d, %ecx	# tmp2671, tmp2671
	movl	%esi, %r9d	# a, tmp2672
	rorl	$13, %r9d	#, tmp2672
	movl	%r9d, %edx	# tmp2672, tmp2672
	movl	%esi, %r9d	# a, tmp2674
	xorl	%ecx, %edx	# tmp2671, tmp2673
	roll	$10, %r9d	#, tmp2674
	xorl	%r9d, %edx	# tmp2674, tmp2675
	movl	%edi, %r9d	# b, tmp2676
	orl	%esi, %r9d	# a, tmp2676
	movl	%r9d, %ecx	# tmp2676, tmp2676
	movl	%edi, %r9d	# b, tmp2678
	andl	%esi, %r9d	# a, tmp2678
	andl	%r8d, %ecx	# c, tmp2677
	orl	%r9d, %ecx	# tmp2678, tmp2679
	movl	%r11d, %r9d	# w15, tmp2681
	addl	%edx, %ecx	# tmp2675, t2
	movl	%r11d, %edx	# w15, tmp2682
	roll	$15, %r9d	#, tmp2681
	roll	$13, %edx	#, tmp2682
	addl	%eax, %ecx	# t1, h
	movl	%edx, %eax	# tmp2682, tmp2682
	xorl	%r9d, %eax	# tmp2681, tmp2683
	movl	%r11d, %r9d	# w15, tmp2684
	shrl	$10, %r9d	#, tmp2684
	xorl	%eax, %r9d	# tmp2683, tmp2685
	addl	%r9d, %r15d	# tmp2685, _2592
	movl	-112(%rsp), %r9d	# %sfp, w2
	movl	%r9d, %edx	# w2, tmp2687
	rorl	$7, %edx	#, tmp2687
	movl	%edx, %eax	# tmp2687, tmp2687
	movl	%r9d, %edx	# w2, w2
	roll	$14, %r9d	#, tmp2688
	xorl	%eax, %r9d	# tmp2687, tmp2689
	shrl	$3, %edx	#, tmp2690
	xorl	%edx, %r9d	# tmp2690, tmp2691
	addl	%r15d, %r9d	# _2592, w1
	movl	%r14d, %r15d	# f, tmp2692
	xorl	%r12d, %r15d	# e, tmp2692
	leal	-272742522(%r13,%r9), %r13d	#, tmp2696
	movl	%r15d, %eax	# tmp2692, tmp2692
	movl	%ebp, %r15d	# d, tmp2698
	andl	%ebp, %eax	# d, tmp2693
	rorl	$6, %r15d	#, tmp2698
	xorl	%r14d, %eax	# f, tmp2694
	addl	%eax, %r13d	# tmp2694, tmp2697
	movl	%r15d, %eax	# tmp2698, tmp2698
	movl	%ebp, %r15d	# d, tmp2699
	rorl	$11, %r15d	#, tmp2699
	movl	%r15d, %edx	# tmp2699, tmp2699
	movl	%ebp, %r15d	# d, tmp2701
	xorl	%eax, %edx	# tmp2698, tmp2700
	roll	$7, %r15d	#, tmp2701
	xorl	%r15d, %edx	# tmp2701, tmp2702
	movl	%ecx, %r15d	# h, tmp2703
	rorl	$2, %r15d	#, tmp2703
	leal	0(%r13,%rdx), %eax	#, t1
	movl	%r15d, %edx	# tmp2703, tmp2703
	movl	%ecx, %r15d	# h, tmp2704
	rorl	$13, %r15d	#, tmp2704
	addl	%eax, %r8d	# t1, c
	movl	%r15d, %r13d	# tmp2704, tmp2704
	movl	%ecx, %r15d	# h, tmp2706
	xorl	%edx, %r13d	# tmp2703, tmp2705
	roll	$10, %r15d	#, tmp2706
	xorl	%r15d, %r13d	# tmp2706, tmp2707
	movl	%esi, %r15d	# a, tmp2708
	orl	%ecx, %r15d	# h, tmp2708
	movl	%r15d, %edx	# tmp2708, tmp2708
	movl	%esi, %r15d	# a, tmp2710
	andl	%ecx, %r15d	# h, tmp2710
	andl	%edi, %edx	# b, tmp2709
	orl	%r15d, %edx	# tmp2710, tmp2711
	addl	%r13d, %edx	# tmp2707, t2
	movl	-108(%rsp), %r13d	# %sfp, w3
	addl	%eax, %edx	# t1, g
	movl	%r13d, %r15d	# w3, tmp2713
	rorl	$7, %r15d	#, tmp2713
	movl	%r15d, %eax	# tmp2713, tmp2713
	movl	%r13d, %r15d	# w3, w3
	roll	$14, %r13d	#, tmp2714
	shrl	$3, %r15d	#, tmp2716
	xorl	%eax, %r13d	# tmp2713, tmp2715
	movl	%r15d, %eax	# tmp2716, tmp2716
	movl	%r10d, %r15d	# w0, tmp2719
	xorl	%r13d, %eax	# tmp2715, tmp2717
	movl	-112(%rsp), %r13d	# %sfp, w2
	addl	-76(%rsp), %r13d	# %sfp, w2
	roll	$15, %r15d	#, tmp2719
	addl	%r13d, %eax	# tmp2718, _2587
	movl	%r10d, %r13d	# w0, tmp2720
	roll	$13, %r13d	#, tmp2720
	xorl	%r15d, %r13d	# tmp2719, tmp2721
	movl	%r10d, %r15d	# w0, tmp2722
	shrl	$10, %r15d	#, tmp2722
	xorl	%r15d, %r13d	# tmp2722, tmp2723
	leal	0(%r13,%rax), %r15d	#, w2
	movl	%r12d, %r13d	# e, tmp2724
	movl	%r8d, %eax	# c, tmp2731
	xorl	%ebp, %r13d	# d, tmp2724
	rorl	$11, %eax	#, tmp2731
	andl	%r8d, %r13d	# c, tmp2725
	leal	264347078(%r14,%r15), %r14d	#, tmp2728
	movl	%r15d, -88(%rsp)	# w2, %sfp
	xorl	%r12d, %r13d	# e, tmp2726
	movl	%ecx, %r15d	# h, tmp2742
	addl	%r13d, %r14d	# tmp2726, tmp2729
	movl	%r8d, %r13d	# c, tmp2730
	rorl	$6, %r13d	#, tmp2730
	xorl	%r13d, %eax	# tmp2730, tmp2732
	movl	%r8d, %r13d	# c, tmp2733
	andl	%edx, %r15d	# g, tmp2742
	roll	$7, %r13d	#, tmp2733
	xorl	%r13d, %eax	# tmp2733, tmp2734
	leal	(%r14,%rax), %r13d	#, t1
	movl	%edx, %eax	# g, tmp2735
	movl	%edx, %r14d	# g, tmp2736
	rorl	$2, %eax	#, tmp2735
	rorl	$13, %r14d	#, tmp2736
	xorl	%eax, %r14d	# tmp2735, tmp2737
	movl	%edx, %eax	# g, tmp2738
	addl	%r13d, %edi	# t1, b
	roll	$10, %eax	#, tmp2738
	xorl	%eax, %r14d	# tmp2738, tmp2739
	movl	%ecx, %eax	# h, tmp2740
	orl	%edx, %eax	# g, tmp2740
	andl	%esi, %eax	# a, tmp2741
	orl	%r15d, %eax	# tmp2742, tmp2743
	movl	-104(%rsp), %r15d	# %sfp, w4
	addl	%r14d, %eax	# tmp2739, t2
	addl	%r13d, %eax	# t1, f
	movl	%r15d, %r14d	# w4, tmp2745
	movl	%r15d, %r13d	# w4, tmp2746
	roll	$14, %r13d	#, tmp2746
	rorl	$7, %r14d	#, tmp2745
	xorl	%r13d, %r14d	# tmp2746, tmp2747
	movl	%r15d, %r13d	# w4, tmp2748
	shrl	$3, %r13d	#, tmp2748
	xorl	%r14d, %r13d	# tmp2747, tmp2749
	movl	-108(%rsp), %r14d	# %sfp, w3
	addl	-60(%rsp), %r14d	# %sfp, w3
	addl	%r14d, %r13d	# tmp2750, _2582
	movl	%r9d, %r14d	# w1, tmp2751
	roll	$15, %r14d	#, tmp2751
	movl	%r14d, %r15d	# tmp2751, tmp2751
	movl	%r9d, %r14d	# w1, tmp2752
	roll	$13, %r14d	#, tmp2752
	xorl	%r15d, %r14d	# tmp2751, tmp2753
	movl	%r9d, %r15d	# w1, tmp2754
	shrl	$10, %r15d	#, tmp2754
	xorl	%r15d, %r14d	# tmp2754, tmp2755
	movl	%edi, %r15d	# b, tmp2763
	addl	%r13d, %r14d	# _2582, w3
	movl	%ebp, %r13d	# d, tmp2756
	xorl	%r8d, %r13d	# c, tmp2756
	leal	604807628(%r12,%r14), %r12d	#, tmp2760
	movl	%r14d, -84(%rsp)	# w3, %sfp
	andl	%edi, %r13d	# b, tmp2757
	movl	%edx, %r14d	# g, tmp2774
	xorl	%ebp, %r13d	# d, tmp2758
	addl	%r12d, %r13d	# tmp2760, tmp2761
	movl	%edi, %r12d	# b, tmp2762
	rorl	$6, %r12d	#, tmp2762
	rorl	$11, %r15d	#, tmp2763
	andl	%eax, %r14d	# f, tmp2774
	xorl	%r12d, %r15d	# tmp2762, tmp2764
	movl	%edi, %r12d	# b, tmp2765
	roll	$7, %r12d	#, tmp2765
	xorl	%r12d, %r15d	# tmp2765, tmp2766
	leal	0(%r13,%r15), %r12d	#, t1
	movl	%eax, %r13d	# f, tmp2767
	rorl	$2, %r13d	#, tmp2767
	movl	%r13d, %r15d	# tmp2767, tmp2767
	movl	%eax, %r13d	# f, tmp2768
	addl	%r12d, %esi	# t1, a
	rorl	$13, %r13d	#, tmp2768
	xorl	%r15d, %r13d	# tmp2767, tmp2769
	movl	%eax, %r15d	# f, tmp2770
	roll	$10, %r15d	#, tmp2770
	xorl	%r15d, %r13d	# tmp2770, tmp2771
	movl	%edx, %r15d	# g, tmp2772
	orl	%eax, %r15d	# f, tmp2772
	andl	%ecx, %r15d	# h, tmp2773
	orl	%r14d, %r15d	# tmp2774, tmp2775
	movl	-80(%rsp), %r14d	# %sfp, w5
	addl	%r13d, %r15d	# tmp2771, t2
	addl	%r12d, %r15d	# t1, e
	movl	%r14d, %r12d	# w5, tmp2777
	rorl	$7, %r12d	#, tmp2777
	movl	%r12d, %r13d	# tmp2777, tmp2777
	movl	%r14d, %r12d	# w5, tmp2778
	roll	$14, %r12d	#, tmp2778
	xorl	%r12d, %r13d	# tmp2778, tmp2779
	movl	%r14d, %r12d	# w5, tmp2780
	shrl	$3, %r12d	#, tmp2780
	xorl	%r13d, %r12d	# tmp2779, tmp2781
	movl	-104(%rsp), %r13d	# %sfp, w4
	addl	-92(%rsp), %r13d	# %sfp, w4
	addl	%r13d, %r12d	# tmp2782, _2577
	movl	-88(%rsp), %r13d	# %sfp, w2
	movl	%r13d, %r14d	# w2, tmp2783
	roll	$13, %r13d	#, tmp2784
	roll	$15, %r14d	#, tmp2783
	xorl	%r14d, %r13d	# tmp2783, tmp2785
	movl	-88(%rsp), %r14d	# %sfp, tmp2786
	shrl	$10, %r14d	#, tmp2786
	xorl	%r14d, %r13d	# tmp2786, tmp2787
	addl	%r13d, %r12d	# tmp2787, w4
	movl	%r12d, %r13d	# w4, w4
	movl	%r8d, %r12d	# c, tmp2788
	xorl	%edi, %r12d	# b, tmp2788
	leal	770255983(%rbp,%r13), %ebp	#, tmp2792
	movl	%r13d, -112(%rsp)	# w4, %sfp
	andl	%esi, %r12d	# a, tmp2789
	movl	%esi, %r13d	# a, tmp2795
	xorl	%r8d, %r12d	# c, tmp2790
	rorl	$11, %r13d	#, tmp2795
	addl	%ebp, %r12d	# tmp2792, tmp2793
	movl	%esi, %ebp	# a, tmp2794
	movl	%r13d, %r14d	# tmp2795, tmp2795
	rorl	$6, %ebp	#, tmp2794
	movl	%r15d, %r13d	# e, tmp2799
	xorl	%ebp, %r14d	# tmp2794, tmp2796
	movl	%esi, %ebp	# a, tmp2797
	rorl	$2, %r13d	#, tmp2799
	roll	$7, %ebp	#, tmp2797
	xorl	%ebp, %r14d	# tmp2797, tmp2798
	leal	(%r12,%r14), %ebp	#, t1
	movl	%r13d, %r14d	# tmp2799, tmp2799
	movl	%r15d, %r13d	# e, tmp2800
	rorl	$13, %r13d	#, tmp2800
	movl	%r13d, %r12d	# tmp2800, tmp2800
	movl	%r15d, %r13d	# e, tmp2802
	addl	%ebp, %ecx	# t1, h
	xorl	%r14d, %r12d	# tmp2799, tmp2801
	roll	$10, %r13d	#, tmp2802
	xorl	%r13d, %r12d	# tmp2802, tmp2803
	movl	%eax, %r13d	# f, tmp2804
	orl	%r15d, %r13d	# e, tmp2804
	movl	%r13d, %r14d	# tmp2804, tmp2804
	movl	%eax, %r13d	# f, tmp2806
	andl	%r15d, %r13d	# e, tmp2806
	andl	%edx, %r14d	# g, tmp2805
	orl	%r13d, %r14d	# tmp2806, tmp2807
	movl	-72(%rsp), %r13d	# %sfp, w6
	addl	%r12d, %r14d	# tmp2803, t2
	addl	%ebp, %r14d	# t1, d
	movl	%r13d, %ebp	# w6, tmp2809
	rorl	$7, %ebp	#, tmp2809
	movl	%ebp, %r12d	# tmp2809, tmp2809
	movl	%r13d, %ebp	# w6, tmp2810
	roll	$14, %ebp	#, tmp2810
	xorl	%ebp, %r12d	# tmp2810, tmp2811
	movl	%r13d, %ebp	# w6, tmp2812
	shrl	$3, %ebp	#, tmp2812
	xorl	%r12d, %ebp	# tmp2811, tmp2813
	movl	-80(%rsp), %r12d	# %sfp, w5
	addl	%ebx, %r12d	# w14, tmp2814
	addl	%r12d, %ebp	# tmp2814, _2572
	movl	-84(%rsp), %r12d	# %sfp, tmp2815
	roll	$15, %r12d	#, tmp2815
	movl	%r12d, %r13d	# tmp2815, tmp2815
	movl	-84(%rsp), %r12d	# %sfp, tmp2816
	roll	$13, %r12d	#, tmp2816
	xorl	%r13d, %r12d	# tmp2815, tmp2817
	movl	-84(%rsp), %r13d	# %sfp, tmp2818
	shrl	$10, %r13d	#, tmp2818
	xorl	%r13d, %r12d	# tmp2818, tmp2819
	movl	%edi, %r13d	# b, tmp2820
	addl	%r12d, %ebp	# tmp2819, w5
	xorl	%esi, %r13d	# a, tmp2820
	movl	%ebp, %r12d	# w5, w5
	movl	%r13d, %ebp	# tmp2820, tmp2820
	movl	%ecx, %r13d	# h, tmp2827
	andl	%ecx, %ebp	# h, tmp2821
	leal	1249150122(%r8,%r12), %r8d	#, tmp2824
	rorl	$11, %r13d	#, tmp2827
	xorl	%edi, %ebp	# b, tmp2822
	movl	%r12d, -80(%rsp)	# w5, %sfp
	movl	%r14d, %r12d	# d, tmp2832
	addl	%r8d, %ebp	# tmp2824, tmp2825
	movl	%ecx, %r8d	# h, tmp2826
	rorl	$13, %r12d	#, tmp2832
	rorl	$6, %r8d	#, tmp2826
	xorl	%r8d, %r13d	# tmp2826, tmp2828
	movl	%ecx, %r8d	# h, tmp2829
	roll	$7, %r8d	#, tmp2829
	xorl	%r8d, %r13d	# tmp2829, tmp2830
	leal	0(%rbp,%r13), %r8d	#, t1
	movl	%r14d, %r13d	# d, tmp2831
	movl	%r12d, %ebp	# tmp2832, tmp2832
	rorl	$2, %r13d	#, tmp2831
	movl	%r15d, %r12d	# e, tmp2838
	xorl	%r13d, %ebp	# tmp2831, tmp2833
	movl	%r14d, %r13d	# d, tmp2834
	andl	%r14d, %r12d	# d, tmp2838
	roll	$10, %r13d	#, tmp2834
	addl	%r8d, %edx	# t1, g
	xorl	%r13d, %ebp	# tmp2834, tmp2835
	movl	%r15d, %r13d	# e, tmp2836
	orl	%r14d, %r13d	# d, tmp2836
	andl	%eax, %r13d	# f, tmp2837
	orl	%r12d, %r13d	# tmp2838, tmp2839
	movl	-68(%rsp), %r12d	# %sfp, w7
	addl	%ebp, %r13d	# tmp2835, t2
	addl	%r8d, %r13d	# t1, c
	movl	%r12d, %r8d	# w7, tmp2841
	rorl	$7, %r8d	#, tmp2841
	movl	%r8d, %ebp	# tmp2841, tmp2841
	movl	%r12d, %r8d	# w7, tmp2842
	roll	$14, %r8d	#, tmp2842
	xorl	%r8d, %ebp	# tmp2842, tmp2843
	movl	%r12d, %r8d	# w7, tmp2844
	shrl	$3, %r8d	#, tmp2844
	xorl	%ebp, %r8d	# tmp2843, tmp2845
	movl	-72(%rsp), %ebp	# %sfp, w6
	addl	%r11d, %ebp	# w15, tmp2846
	addl	%ebp, %r8d	# tmp2846, _2567
	movl	-112(%rsp), %ebp	# %sfp, w4
	movl	%ebp, %r12d	# w4, tmp2847
	roll	$13, %ebp	#, tmp2848
	roll	$15, %r12d	#, tmp2847
	xorl	%r12d, %ebp	# tmp2847, tmp2849
	movl	-112(%rsp), %r12d	# %sfp, tmp2850
	shrl	$10, %r12d	#, tmp2850
	xorl	%r12d, %ebp	# tmp2850, tmp2851
	movl	%esi, %r12d	# a, tmp2852
	xorl	%ecx, %r12d	# h, tmp2852
	addl	%ebp, %r8d	# tmp2851, w6
	movl	%r8d, %ebp	# w6, w6
	movl	%r12d, %r8d	# tmp2852, tmp2852
	movl	%edx, %r12d	# g, tmp2859
	andl	%edx, %r8d	# g, tmp2853
	leal	1555081692(%rdi,%rbp), %edi	#, tmp2856
	rorl	$11, %r12d	#, tmp2859
	xorl	%esi, %r8d	# a, tmp2854
	movl	%ebp, -108(%rsp)	# w6, %sfp
	movl	%r13d, %ebp	# c, tmp2864
	addl	%edi, %r8d	# tmp2856, tmp2857
	movl	%edx, %edi	# g, tmp2858
	rorl	$13, %ebp	#, tmp2864
	rorl	$6, %edi	#, tmp2858
	xorl	%edi, %r12d	# tmp2858, tmp2860
	movl	%edx, %edi	# g, tmp2861
	roll	$7, %edi	#, tmp2861
	xorl	%edi, %r12d	# tmp2861, tmp2862
	leal	(%r8,%r12), %edi	#, t1
	movl	%r13d, %r12d	# c, tmp2863
	movl	%ebp, %r8d	# tmp2864, tmp2864
	rorl	$2, %r12d	#, tmp2863
	movl	%r14d, %ebp	# d, tmp2870
	xorl	%r12d, %r8d	# tmp2863, tmp2865
	movl	%r13d, %r12d	# c, tmp2866
	andl	%r13d, %ebp	# c, tmp2870
	roll	$10, %r12d	#, tmp2866
	addl	%edi, %eax	# t1, f
	xorl	%r12d, %r8d	# tmp2866, tmp2867
	movl	%r14d, %r12d	# d, tmp2868
	orl	%r13d, %r12d	# c, tmp2868
	andl	%r15d, %r12d	# e, tmp2869
	orl	%ebp, %r12d	# tmp2870, tmp2871
	movl	-64(%rsp), %ebp	# %sfp, w8
	addl	%r8d, %r12d	# tmp2867, t2
	addl	%edi, %r12d	# t1, b
	movl	%ebp, %edi	# w8, tmp2873
	rorl	$7, %edi	#, tmp2873
	movl	%edi, %r8d	# tmp2873, tmp2873
	movl	%ebp, %edi	# w8, tmp2874
	roll	$14, %edi	#, tmp2874
	xorl	%r8d, %edi	# tmp2873, tmp2875
	movl	%ebp, %r8d	# w8, tmp2876
	shrl	$3, %r8d	#, tmp2876
	xorl	%r8d, %edi	# tmp2876, tmp2877
	movl	-80(%rsp), %r8d	# %sfp, w5
	addl	-68(%rsp), %edi	# %sfp, tmp2878
	movl	%r8d, %ebp	# w5, tmp2879
	roll	$13, %r8d	#, tmp2880
	roll	$15, %ebp	#, tmp2879
	addl	%r10d, %edi	# w0, _2562
	xorl	%ebp, %r8d	# tmp2879, tmp2881
	movl	-80(%rsp), %ebp	# %sfp, tmp2882
	shrl	$10, %ebp	#, tmp2882
	xorl	%ebp, %r8d	# tmp2882, tmp2883
	movl	%eax, %ebp	# f, tmp2891
	addl	%r8d, %edi	# tmp2883, w7
	rorl	$11, %ebp	#, tmp2891
	movl	%edi, %r8d	# w7, w7
	movl	%ecx, %edi	# h, tmp2884
	xorl	%edx, %edi	# g, tmp2884
	leal	1996064986(%rsi,%r8), %esi	#, tmp2888
	movl	%r8d, -104(%rsp)	# w7, %sfp
	andl	%eax, %edi	# f, tmp2885
	movl	%r13d, %r8d	# c, tmp2902
	xorl	%ecx, %edi	# h, tmp2886
	andl	%r12d, %r8d	# b, tmp2902
	addl	%esi, %edi	# tmp2888, tmp2889
	movl	%eax, %esi	# f, tmp2890
	rorl	$6, %esi	#, tmp2890
	xorl	%esi, %ebp	# tmp2890, tmp2892
	movl	%eax, %esi	# f, tmp2893
	roll	$7, %esi	#, tmp2893
	xorl	%ebp, %esi	# tmp2892, tmp2894
	movl	%r12d, %ebp	# b, tmp2895
	addl	%edi, %esi	# tmp2889, t1
	movl	%r12d, %edi	# b, tmp2896
	rorl	$2, %ebp	#, tmp2895
	rorl	$13, %edi	#, tmp2896
	addl	%esi, %r15d	# t1, e
	xorl	%ebp, %edi	# tmp2895, tmp2897
	movl	%r12d, %ebp	# b, tmp2898
	roll	$10, %ebp	#, tmp2898
	xorl	%ebp, %edi	# tmp2898, tmp2899
	movl	%r13d, %ebp	# c, tmp2900
	orl	%r12d, %ebp	# b, tmp2900
	andl	%r14d, %ebp	# d, tmp2901
	orl	%r8d, %ebp	# tmp2902, tmp2903
	movl	-100(%rsp), %r8d	# %sfp, w9
	addl	%edi, %ebp	# tmp2899, t2
	addl	%esi, %ebp	# t1, a
	movl	%r8d, %esi	# w9, tmp2905
	rorl	$7, %esi	#, tmp2905
	movl	%esi, %edi	# tmp2905, tmp2905
	movl	%r8d, %esi	# w9, tmp2906
	roll	$14, %esi	#, tmp2906
	xorl	%edi, %esi	# tmp2905, tmp2907
	movl	%r8d, %edi	# w9, tmp2908
	shrl	$3, %edi	#, tmp2908
	xorl	%edi, %esi	# tmp2908, tmp2909
	addl	-64(%rsp), %esi	# %sfp, tmp2910
	movl	-108(%rsp), %edi	# %sfp, tmp2911
	addl	%r9d, %esi	# w1, _2557
	roll	$15, %edi	#, tmp2911
	movl	%edi, %r8d	# tmp2911, tmp2911
	movl	-108(%rsp), %edi	# %sfp, tmp2912
	roll	$13, %edi	#, tmp2912
	xorl	%r8d, %edi	# tmp2911, tmp2913
	movl	-108(%rsp), %r8d	# %sfp, tmp2914
	shrl	$10, %r8d	#, tmp2914
	xorl	%r8d, %edi	# tmp2914, tmp2915
	movl	%r15d, %r8d	# e, tmp2923
	addl	%edi, %esi	# tmp2915, w8
	rorl	$11, %r8d	#, tmp2923
	movl	%esi, %edi	# w8, w8
	movl	%edx, %esi	# g, tmp2916
	xorl	%eax, %esi	# f, tmp2916
	leal	-1740746414(%rcx,%rdi), %ecx	#, tmp2920
	movl	%edi, -72(%rsp)	# w8, %sfp
	andl	%r15d, %esi	# e, tmp2917
	movl	%r12d, %edi	# b, tmp2934
	xorl	%edx, %esi	# g, tmp2918
	andl	%ebp, %edi	# a, tmp2934
	addl	%ecx, %esi	# tmp2920, tmp2921
	movl	%r15d, %ecx	# e, tmp2922
	rorl	$6, %ecx	#, tmp2922
	xorl	%ecx, %r8d	# tmp2922, tmp2924
	movl	%r15d, %ecx	# e, tmp2925
	roll	$7, %ecx	#, tmp2925
	xorl	%r8d, %ecx	# tmp2924, tmp2926
	addl	%esi, %ecx	# tmp2921, t1
	movl	%ebp, %esi	# a, tmp2927
	rorl	$2, %esi	#, tmp2927
	addl	%ecx, %r14d	# t1, d
	movl	%esi, %r8d	# tmp2927, tmp2927
	movl	%ebp, %esi	# a, tmp2928
	rorl	$13, %esi	#, tmp2928
	xorl	%r8d, %esi	# tmp2927, tmp2929
	movl	%ebp, %r8d	# a, tmp2930
	roll	$10, %r8d	#, tmp2930
	xorl	%r8d, %esi	# tmp2930, tmp2931
	movl	%r12d, %r8d	# b, tmp2932
	orl	%ebp, %r8d	# a, tmp2932
	andl	%r13d, %r8d	# c, tmp2933
	orl	%edi, %r8d	# tmp2934, tmp2935
	movl	-96(%rsp), %edi	# %sfp, w10
	addl	%esi, %r8d	# tmp2931, t2
	addl	%ecx, %r8d	# t1, h
	movl	%edi, %ecx	# w10, tmp2937
	rorl	$7, %ecx	#, tmp2937
	movl	%ecx, %esi	# tmp2937, tmp2937
	movl	%edi, %ecx	# w10, tmp2938
	roll	$14, %ecx	#, tmp2938
	xorl	%esi, %ecx	# tmp2937, tmp2939
	movl	%edi, %esi	# w10, tmp2940
	shrl	$3, %esi	#, tmp2940
	xorl	%esi, %ecx	# tmp2940, tmp2941
	movl	-104(%rsp), %esi	# %sfp, w7
	addl	-100(%rsp), %ecx	# %sfp, tmp2942
	addl	-88(%rsp), %ecx	# %sfp, _2552
	movl	%esi, %edi	# w7, tmp2943
	roll	$13, %esi	#, tmp2944
	roll	$15, %edi	#, tmp2943
	xorl	%edi, %esi	# tmp2943, tmp2945
	movl	-104(%rsp), %edi	# %sfp, tmp2946
	shrl	$10, %edi	#, tmp2946
	xorl	%edi, %esi	# tmp2946, tmp2947
	movl	%r14d, %edi	# d, tmp2955
	addl	%esi, %ecx	# tmp2947, w9
	rorl	$11, %edi	#, tmp2955
	movl	%ecx, %esi	# w9, w9
	movl	%eax, %ecx	# f, tmp2948
	xorl	%r15d, %ecx	# e, tmp2948
	leal	-1473132947(%rdx,%rsi), %edx	#, tmp2952
	movl	%esi, -68(%rsp)	# w9, %sfp
	andl	%r14d, %ecx	# d, tmp2949
	movl	%r8d, %esi	# h, tmp2960
	xorl	%eax, %ecx	# f, tmp2950
	rorl	$13, %esi	#, tmp2960
	addl	%edx, %ecx	# tmp2952, tmp2953
	movl	%r14d, %edx	# d, tmp2954
	rorl	$6, %edx	#, tmp2954
	xorl	%edx, %edi	# tmp2954, tmp2956
	movl	%r14d, %edx	# d, tmp2957
	roll	$7, %edx	#, tmp2957
	xorl	%edi, %edx	# tmp2956, tmp2958
	movl	%r8d, %edi	# h, tmp2959
	addl	%ecx, %edx	# tmp2953, t1
	rorl	$2, %edi	#, tmp2959
	movl	%esi, %ecx	# tmp2960, tmp2960
	xorl	%edi, %ecx	# tmp2959, tmp2961
	movl	%r8d, %edi	# h, tmp2962
	movl	%ebp, %esi	# a, tmp2966
	roll	$10, %edi	#, tmp2962
	andl	%r8d, %esi	# h, tmp2966
	addl	%edx, %r13d	# t1, c
	xorl	%edi, %ecx	# tmp2962, tmp2963
	movl	%ebp, %edi	# a, tmp2964
	orl	%r8d, %edi	# h, tmp2964
	andl	%r12d, %edi	# b, tmp2965
	orl	%esi, %edi	# tmp2966, tmp2967
	movl	-76(%rsp), %esi	# %sfp, w11
	addl	%ecx, %edi	# tmp2963, t2
	addl	%edx, %edi	# t1, g
	movl	%esi, %edx	# w11, tmp2969
	rorl	$7, %edx	#, tmp2969
	movl	%edx, %ecx	# tmp2969, tmp2969
	movl	%esi, %edx	# w11, tmp2970
	roll	$14, %edx	#, tmp2970
	xorl	%ecx, %edx	# tmp2969, tmp2971
	movl	%esi, %ecx	# w11, tmp2972
	shrl	$3, %ecx	#, tmp2972
	xorl	%ecx, %edx	# tmp2972, tmp2973
	movl	-72(%rsp), %ecx	# %sfp, tmp2975
	addl	-96(%rsp), %edx	# %sfp, tmp2974
	addl	-84(%rsp), %edx	# %sfp, _2547
	roll	$15, %ecx	#, tmp2975
	movl	%ecx, %esi	# tmp2975, tmp2975
	movl	-72(%rsp), %ecx	# %sfp, tmp2976
	roll	$13, %ecx	#, tmp2976
	xorl	%esi, %ecx	# tmp2975, tmp2977
	movl	-72(%rsp), %esi	# %sfp, tmp2978
	shrl	$10, %esi	#, tmp2978
	xorl	%esi, %ecx	# tmp2978, tmp2979
	movl	%r13d, %esi	# c, tmp2986
	addl	%ecx, %edx	# tmp2979, w10
	rorl	$6, %esi	#, tmp2986
	movl	%edx, %ecx	# w10, w10
	movl	%r15d, %edx	# e, tmp2980
	xorl	%r14d, %edx	# d, tmp2980
	leal	-1341970488(%rax,%rcx), %eax	#, tmp2984
	movl	%ecx, -100(%rsp)	# w10, %sfp
	andl	%r13d, %edx	# c, tmp2981
	movl	%r8d, %ecx	# h, tmp2998
	xorl	%r15d, %edx	# e, tmp2982
	andl	%edi, %ecx	# g, tmp2998
	addl	%eax, %edx	# tmp2984, tmp2985
	movl	%esi, %eax	# tmp2986, tmp2986
	movl	%r13d, %esi	# c, tmp2987
	rorl	$11, %esi	#, tmp2987
	xorl	%eax, %esi	# tmp2986, tmp2988
	movl	%r13d, %eax	# c, tmp2989
	roll	$7, %eax	#, tmp2989
	xorl	%esi, %eax	# tmp2988, tmp2990
	movl	%edi, %esi	# g, tmp2991
	addl	%edx, %eax	# tmp2985, t1
	movl	%edi, %edx	# g, tmp2992
	rorl	$2, %esi	#, tmp2991
	rorl	$13, %edx	#, tmp2992
	addl	%eax, %r12d	# t1, b
	xorl	%esi, %edx	# tmp2991, tmp2993
	movl	%edi, %esi	# g, tmp2994
	roll	$10, %esi	#, tmp2994
	xorl	%esi, %edx	# tmp2994, tmp2995
	movl	%r8d, %esi	# h, tmp2996
	orl	%edi, %esi	# g, tmp2996
	andl	%ebp, %esi	# a, tmp2997
	orl	%ecx, %esi	# tmp2998, tmp2999
	movl	-60(%rsp), %ecx	# %sfp, w12
	addl	%edx, %esi	# tmp2995, t2
	addl	%eax, %esi	# t1, f
	movl	%ecx, %edx	# w12, tmp3001
	movl	%ecx, %eax	# w12, tmp3002
	rorl	$7, %edx	#, tmp3001
	roll	$14, %eax	#, tmp3002
	xorl	%edx, %eax	# tmp3001, tmp3003
	movl	%ecx, %edx	# w12, tmp3004
	shrl	$3, %edx	#, tmp3004
	xorl	%edx, %eax	# tmp3004, tmp3005
	movl	-68(%rsp), %edx	# %sfp, w9
	addl	-76(%rsp), %eax	# %sfp, tmp3006
	addl	-112(%rsp), %eax	# %sfp, _2542
	movl	%edx, %ecx	# w9, tmp3007
	roll	$13, %edx	#, tmp3008
	roll	$15, %ecx	#, tmp3007
	xorl	%ecx, %edx	# tmp3007, tmp3009
	movl	-68(%rsp), %ecx	# %sfp, tmp3010
	shrl	$10, %ecx	#, tmp3010
	xorl	%ecx, %edx	# tmp3010, tmp3011
	addl	%eax, %edx	# _2542, w11
	movl	%r14d, %eax	# d, tmp3012
	xorl	%r13d, %eax	# c, tmp3012
	movl	%edx, -64(%rsp)	# w11, %sfp
	leal	-1084653625(%r15,%rdx), %edx	#, tmp3016
	andl	%r12d, %eax	# b, tmp3013
	movl	%r12d, %r15d	# b, tmp3018
	xorl	%r14d, %eax	# d, tmp3014
	rorl	$6, %r15d	#, tmp3018
	addl	%eax, %edx	# tmp3014, tmp3017
	movl	%r15d, %eax	# tmp3018, tmp3018
	movl	%r12d, %r15d	# b, tmp3019
	rorl	$11, %r15d	#, tmp3019
	movl	%r15d, %ecx	# tmp3019, tmp3019
	movl	%r12d, %r15d	# b, tmp3021
	roll	$7, %r15d	#, tmp3021
	xorl	%eax, %ecx	# tmp3018, tmp3020
	movl	%r15d, %eax	# tmp3021, tmp3021
	movl	%esi, %r15d	# f, tmp3023
	rorl	$2, %r15d	#, tmp3023
	xorl	%ecx, %eax	# tmp3020, tmp3022
	movl	%r15d, %ecx	# tmp3023, tmp3023
	movl	%esi, %r15d	# f, tmp3024
	addl	%edx, %eax	# tmp3017, t1
	rorl	$13, %r15d	#, tmp3024
	addl	%eax, %ebp	# t1, a
	movl	%r15d, %edx	# tmp3024, tmp3024
	movl	%esi, %r15d	# f, tmp3026
	xorl	%ecx, %edx	# tmp3023, tmp3025
	roll	$10, %r15d	#, tmp3026
	xorl	%r15d, %edx	# tmp3026, tmp3027
	movl	%edi, %r15d	# g, tmp3028
	orl	%esi, %r15d	# f, tmp3028
	movl	%r15d, %ecx	# tmp3028, tmp3028
	movl	%edi, %r15d	# g, tmp3030
	andl	%esi, %r15d	# f, tmp3030
	andl	%r8d, %ecx	# h, tmp3029
	orl	%r15d, %ecx	# tmp3030, tmp3031
	addl	%edx, %ecx	# tmp3027, t2
	addl	%eax, %ecx	# t1, e
	movl	-92(%rsp), %eax	# %sfp, w13
	movl	%eax, %r15d	# w13, tmp3033
	rorl	$7, %r15d	#, tmp3033
	movl	%r15d, %edx	# tmp3033, tmp3033
	movl	%eax, %r15d	# w13, tmp3034
	roll	$14, %r15d	#, tmp3034
	movl	%r15d, %eax	# tmp3034, tmp3034
	movl	-92(%rsp), %r15d	# %sfp, tmp3036
	xorl	%edx, %eax	# tmp3033, tmp3035
	movl	-100(%rsp), %edx	# %sfp, w10
	shrl	$3, %r15d	#, tmp3036
	xorl	%r15d, %eax	# tmp3036, tmp3037
	movl	%edx, %r15d	# w10, tmp3039
	roll	$13, %edx	#, tmp3040
	roll	$15, %r15d	#, tmp3039
	addl	-60(%rsp), %eax	# %sfp, tmp3038
	xorl	%r15d, %edx	# tmp3039, tmp3041
	movl	-100(%rsp), %r15d	# %sfp, tmp3042
	addl	-80(%rsp), %eax	# %sfp, _2537
	shrl	$10, %r15d	#, tmp3042
	xorl	%r15d, %edx	# tmp3042, tmp3043
	leal	(%rdx,%rax), %r15d	#, w12
	movl	%r13d, %eax	# c, tmp3044
	movl	%ebp, %edx	# a, tmp3051
	xorl	%r12d, %eax	# b, tmp3044
	rorl	$11, %edx	#, tmp3051
	andl	%ebp, %eax	# a, tmp3045
	leal	-958395405(%r14,%r15), %r14d	#, tmp3048
	movl	%r15d, -96(%rsp)	# w12, %sfp
	xorl	%r13d, %eax	# c, tmp3046
	movl	%esi, %r15d	# f, tmp3062
	addl	%eax, %r14d	# tmp3046, tmp3049
	movl	%ebp, %eax	# a, tmp3050
	rorl	$6, %eax	#, tmp3050
	xorl	%eax, %edx	# tmp3050, tmp3052
	movl	%ebp, %eax	# a, tmp3053
	roll	$7, %eax	#, tmp3053
	xorl	%edx, %eax	# tmp3052, tmp3054
	addl	%r14d, %eax	# tmp3049, t1
	movl	%ecx, %r14d	# e, tmp3055
	rorl	$2, %r14d	#, tmp3055
	addl	%eax, %r8d	# t1, h
	movl	%r14d, %edx	# tmp3055, tmp3055
	movl	%ecx, %r14d	# e, tmp3056
	rorl	$13, %r14d	#, tmp3056
	xorl	%edx, %r14d	# tmp3055, tmp3057
	movl	%ecx, %edx	# e, tmp3058
	roll	$10, %edx	#, tmp3058
	andl	%ecx, %r15d	# e, tmp3062
	xorl	%edx, %r14d	# tmp3058, tmp3059
	movl	%esi, %edx	# f, tmp3060
	orl	%ecx, %edx	# e, tmp3060
	andl	%edi, %edx	# g, tmp3061
	orl	%r15d, %edx	# tmp3062, tmp3063
	addl	%r14d, %edx	# tmp3059, t2
	movl	%ebx, %r14d	# w14, tmp3065
	addl	%eax, %edx	# t1, d
	movl	%ebx, %eax	# w14, tmp3066
	rorl	$7, %r14d	#, tmp3065
	roll	$14, %eax	#, tmp3066
	xorl	%r14d, %eax	# tmp3065, tmp3067
	movl	%ebx, %r14d	# w14, tmp3068
	shrl	$3, %r14d	#, tmp3068
	xorl	%r14d, %eax	# tmp3068, tmp3069
	movl	-64(%rsp), %r14d	# %sfp, tmp3071
	addl	-92(%rsp), %eax	# %sfp, tmp3070
	addl	-108(%rsp), %eax	# %sfp, _2532
	roll	$15, %r14d	#, tmp3071
	movl	%r14d, %r15d	# tmp3071, tmp3071
	movl	-64(%rsp), %r14d	# %sfp, tmp3072
	roll	$13, %r14d	#, tmp3072
	xorl	%r15d, %r14d	# tmp3071, tmp3073
	movl	-64(%rsp), %r15d	# %sfp, tmp3074
	shrl	$10, %r15d	#, tmp3074
	xorl	%r15d, %r14d	# tmp3074, tmp3075
	movl	%ecx, %r15d	# e, tmp3094
	addl	%eax, %r14d	# _2532, w13
	movl	%r14d, %eax	# w13, w13
	movl	%r12d, %r14d	# b, tmp3076
	xorl	%ebp, %r14d	# a, tmp3076
	leal	-710438585(%r13,%rax), %r13d	#, tmp3080
	movl	%eax, -92(%rsp)	# w13, %sfp
	andl	%r8d, %r14d	# h, tmp3077
	xorl	%r12d, %r14d	# b, tmp3078
	addl	%r13d, %r14d	# tmp3080, tmp3081
	movl	%r8d, %r13d	# h, tmp3082
	rorl	$6, %r13d	#, tmp3082
	movl	%r13d, %eax	# tmp3082, tmp3082
	movl	%r8d, %r13d	# h, tmp3083
	rorl	$11, %r13d	#, tmp3083
	xorl	%eax, %r13d	# tmp3082, tmp3084
	movl	%r8d, %eax	# h, tmp3085
	roll	$7, %eax	#, tmp3085
	xorl	%eax, %r13d	# tmp3085, tmp3086
	movl	%edx, %eax	# d, tmp3088
	addl	%r14d, %r13d	# tmp3081, t1
	movl	%edx, %r14d	# d, tmp3087
	addl	%r13d, %edi	# t1, g
	rorl	$2, %r14d	#, tmp3087
	rorl	$13, %eax	#, tmp3088
	xorl	%r14d, %eax	# tmp3087, tmp3089
	movl	%edx, %r14d	# d, tmp3090
	andl	%edx, %r15d	# d, tmp3094
	roll	$10, %r14d	#, tmp3090
	xorl	%r14d, %eax	# tmp3090, tmp3091
	movl	%ecx, %r14d	# e, tmp3092
	orl	%edx, %r14d	# d, tmp3092
	andl	%esi, %r14d	# f, tmp3093
	orl	%r15d, %r14d	# tmp3094, tmp3095
	movl	-96(%rsp), %r15d	# %sfp, w12
	addl	%eax, %r14d	# tmp3091, t2
	movl	%r11d, %eax	# w15, tmp3098
	addl	%r14d, %r13d	# t2, c
	movl	%r11d, %r14d	# w15, tmp3097
	roll	$14, %eax	#, tmp3098
	rorl	$7, %r14d	#, tmp3097
	xorl	%r14d, %eax	# tmp3097, tmp3099
	movl	%r11d, %r14d	# w15, tmp3100
	shrl	$3, %r14d	#, tmp3100
	xorl	%r14d, %eax	# tmp3100, tmp3101
	movl	%r15d, %r14d	# w12, tmp3103
	addl	%eax, %ebx	# tmp3101, tmp3102
	movl	%r15d, %eax	# w12, tmp3104
	addl	-104(%rsp), %ebx	# %sfp, _2527
	roll	$15, %r14d	#, tmp3103
	roll	$13, %eax	#, tmp3104
	xorl	%r14d, %eax	# tmp3103, tmp3105
	movl	%r15d, %r14d	# w12, tmp3106
	shrl	$10, %r14d	#, tmp3106
	xorl	%r14d, %eax	# tmp3106, tmp3107
	movl	%edx, %r14d	# d, tmp3126
	addl	%eax, %ebx	# tmp3107, w14
	movl	%ebp, %eax	# a, tmp3108
	xorl	%r8d, %eax	# h, tmp3108
	leal	113926993(%r12,%rbx), %r12d	#, tmp3112
	movl	%ebx, %r15d	# w14, w14
	andl	%edi, %eax	# g, tmp3109
	movl	%edi, %ebx	# g, tmp3114
	xorl	%ebp, %eax	# a, tmp3110
	rorl	$6, %ebx	#, tmp3114
	addl	%eax, %r12d	# tmp3110, tmp3113
	movl	%edi, %eax	# g, tmp3115
	rorl	$11, %eax	#, tmp3115
	xorl	%ebx, %eax	# tmp3114, tmp3116
	movl	%edi, %ebx	# g, tmp3117
	roll	$7, %ebx	#, tmp3117
	xorl	%ebx, %eax	# tmp3117, tmp3118
	movl	%r13d, %ebx	# c, tmp3120
	andl	%r13d, %r14d	# c, tmp3126
	addl	%r12d, %eax	# tmp3113, t1
	movl	%r13d, %r12d	# c, tmp3119
	rorl	$13, %ebx	#, tmp3120
	rorl	$2, %r12d	#, tmp3119
	addl	%eax, %esi	# t1, f
	xorl	%r12d, %ebx	# tmp3119, tmp3121
	movl	%r13d, %r12d	# c, tmp3122
	roll	$10, %r12d	#, tmp3122
	xorl	%r12d, %ebx	# tmp3122, tmp3123
	movl	%edx, %r12d	# d, tmp3124
	orl	%r13d, %r12d	# c, tmp3124
	andl	%ecx, %r12d	# e, tmp3125
	orl	%r14d, %r12d	# tmp3126, tmp3127
	movl	-92(%rsp), %r14d	# %sfp, w13
	addl	%ebx, %r12d	# tmp3123, t2
	movl	%r10d, %ebx	# w0, tmp3130
	addl	%r12d, %eax	# t2, b
	movl	%r10d, %r12d	# w0, tmp3129
	roll	$14, %ebx	#, tmp3130
	rorl	$7, %r12d	#, tmp3129
	xorl	%r12d, %ebx	# tmp3129, tmp3131
	movl	%r10d, %r12d	# w0, tmp3132
	shrl	$3, %r12d	#, tmp3132
	xorl	%r12d, %ebx	# tmp3132, tmp3133
	movl	%r14d, %r12d	# w13, tmp3135
	addl	%ebx, %r11d	# tmp3133, tmp3134
	movl	%r14d, %ebx	# w13, tmp3136
	roll	$15, %r12d	#, tmp3135
	roll	$13, %ebx	#, tmp3136
	addl	-72(%rsp), %r11d	# %sfp, _2522
	xorl	%r12d, %ebx	# tmp3135, tmp3137
	movl	%r14d, %r12d	# w13, tmp3138
	shrl	$10, %r12d	#, tmp3138
	xorl	%r12d, %ebx	# tmp3138, tmp3139
	movl	%r8d, %r12d	# h, tmp3140
	xorl	%edi, %r12d	# g, tmp3140
	addl	%ebx, %r11d	# tmp3139, w15
	movl	%r12d, %ebx	# tmp3140, tmp3140
	leal	338241895(%rbp,%r11), %ebp	#, tmp3144
	movl	%r11d, %r14d	# w15, w15
	andl	%esi, %ebx	# f, tmp3141
	movl	%esi, %r11d	# f, tmp3146
	movl	%esi, %r12d	# f, tmp3147
	xorl	%r8d, %ebx	# h, tmp3142
	rorl	$6, %r11d	#, tmp3146
	addl	%ebx, %ebp	# tmp3142, tmp3145
	rorl	$11, %r12d	#, tmp3147
	movl	%r12d, %ebx	# tmp3147, tmp3147
	movl	%r13d, %r12d	# c, tmp3158
	xorl	%r11d, %ebx	# tmp3146, tmp3148
	movl	%esi, %r11d	# f, tmp3149
	andl	%eax, %r12d	# b, tmp3158
	roll	$7, %r11d	#, tmp3149
	xorl	%r11d, %ebx	# tmp3149, tmp3150
	movl	%eax, %r11d	# b, tmp3152
	addl	%ebp, %ebx	# tmp3145, t1
	movl	%eax, %ebp	# b, tmp3151
	rorl	$13, %r11d	#, tmp3152
	rorl	$2, %ebp	#, tmp3151
	addl	%ebx, %ecx	# t1, e
	xorl	%ebp, %r11d	# tmp3151, tmp3153
	movl	%eax, %ebp	# b, tmp3154
	roll	$10, %ebp	#, tmp3154
	xorl	%ebp, %r11d	# tmp3154, tmp3155
	movl	%r13d, %ebp	# c, tmp3156
	orl	%eax, %ebp	# b, tmp3156
	andl	%edx, %ebp	# d, tmp3157
	orl	%r12d, %ebp	# tmp3158, tmp3159
	addl	%r11d, %ebp	# tmp3155, t2
	movl	%r9d, %r11d	# w1, tmp3162
	addl	%ebp, %ebx	# t2, a
	movl	%r9d, %ebp	# w1, tmp3161
	roll	$14, %r11d	#, tmp3162
	rorl	$7, %ebp	#, tmp3161
	xorl	%ebp, %r11d	# tmp3161, tmp3163
	movl	%r9d, %ebp	# w1, tmp3164
	shrl	$3, %ebp	#, tmp3164
	xorl	%ebp, %r11d	# tmp3164, tmp3165
	movl	%r15d, %ebp	# w14, tmp3167
	addl	%r11d, %r10d	# tmp3165, tmp3166
	movl	%r15d, %r11d	# w14, tmp3168
	addl	-68(%rsp), %r10d	# %sfp, _2517
	roll	$15, %ebp	#, tmp3167
	roll	$13, %r11d	#, tmp3168
	movl	%r15d, -60(%rsp)	# w14, %sfp
	xorl	%ebp, %r11d	# tmp3167, tmp3169
	movl	%r15d, %ebp	# w14, tmp3170
	movl	-88(%rsp), %r15d	# %sfp, w2
	shrl	$10, %ebp	#, tmp3170
	movl	%r14d, -48(%rsp)	# w15, %sfp
	xorl	%ebp, %r11d	# tmp3170, tmp3171
	movl	%eax, %ebp	# b, tmp3190
	addl	%r11d, %r10d	# tmp3171, w0
	movl	%r10d, %r12d	# w0, w0
	movl	%edi, %r10d	# g, tmp3172
	xorl	%esi, %r10d	# f, tmp3172
	leal	666307205(%r8,%r12), %r11d	#, tmp3176
	movl	%ecx, %r8d	# e, tmp3178
	andl	%ecx, %r10d	# e, tmp3173
	xorl	%edi, %r10d	# g, tmp3174
	rorl	$6, %r8d	#, tmp3178
	andl	%ebx, %ebp	# a, tmp3190
	addl	%r10d, %r11d	# tmp3174, tmp3177
	movl	%ecx, %r10d	# e, tmp3179
	rorl	$11, %r10d	#, tmp3179
	xorl	%r8d, %r10d	# tmp3178, tmp3180
	movl	%ecx, %r8d	# e, tmp3181
	roll	$7, %r8d	#, tmp3181
	xorl	%r8d, %r10d	# tmp3181, tmp3182
	movl	%ebx, %r8d	# a, tmp3184
	addl	%r11d, %r10d	# tmp3177, t1
	movl	%ebx, %r11d	# a, tmp3183
	rorl	$13, %r8d	#, tmp3184
	rorl	$2, %r11d	#, tmp3183
	addl	%r10d, %edx	# t1, d
	xorl	%r11d, %r8d	# tmp3183, tmp3185
	movl	%ebx, %r11d	# a, tmp3186
	roll	$10, %r11d	#, tmp3186
	xorl	%r11d, %r8d	# tmp3186, tmp3187
	movl	%eax, %r11d	# b, tmp3188
	orl	%ebx, %r11d	# a, tmp3188
	andl	%r13d, %r11d	# c, tmp3189
	orl	%ebp, %r11d	# tmp3190, tmp3191
	movl	%r12d, %ebp	# w0, w0
	addl	%r8d, %r11d	# tmp3187, t2
	movl	%r15d, %r8d	# w2, tmp3194
	movl	%ebp, -44(%rsp)	# w0, %sfp
	addl	%r11d, %r10d	# t2, h
	movl	%r15d, %r11d	# w2, tmp3193
	roll	$14, %r8d	#, tmp3194
	rorl	$7, %r11d	#, tmp3193
	xorl	%r11d, %r8d	# tmp3193, tmp3195
	movl	%r15d, %r11d	# w2, tmp3196
	shrl	$3, %r11d	#, tmp3196
	xorl	%r11d, %r8d	# tmp3196, tmp3197
	addl	%r8d, %r9d	# tmp3197, tmp3198
	movl	%r14d, %r8d	# w15, tmp3199
	addl	-100(%rsp), %r9d	# %sfp, _2512
	roll	$15, %r8d	#, tmp3199
	movl	%r8d, %r11d	# tmp3199, tmp3199
	movl	%r14d, %r8d	# w15, tmp3200
	roll	$13, %r8d	#, tmp3200
	xorl	%r11d, %r8d	# tmp3199, tmp3201
	movl	%r14d, %r11d	# w15, tmp3202
	movl	-84(%rsp), %r14d	# %sfp, w3
	shrl	$10, %r11d	#, tmp3202
	xorl	%r11d, %r8d	# tmp3202, tmp3203
	addl	%r8d, %r9d	# tmp3203, w1
	movl	%esi, %r8d	# f, tmp3204
	xorl	%ecx, %r8d	# e, tmp3204
	movl	%r9d, -56(%rsp)	# w1, %sfp
	leal	773529912(%rdi,%r9), %r9d	#, tmp3208
	andl	%edx, %r8d	# d, tmp3205
	movl	%edx, %edi	# d, tmp3210
	xorl	%esi, %r8d	# f, tmp3206
	rorl	$6, %edi	#, tmp3210
	addl	%r8d, %r9d	# tmp3206, tmp3209
	movl	%edx, %r8d	# d, tmp3211
	rorl	$11, %r8d	#, tmp3211
	xorl	%edi, %r8d	# tmp3210, tmp3212
	movl	%edx, %edi	# d, tmp3213
	roll	$7, %edi	#, tmp3213
	xorl	%edi, %r8d	# tmp3213, tmp3214
	addl	%r9d, %r8d	# tmp3209, t1
	leal	0(%r13,%r8), %r9d	#, c
	movl	%r10d, %r13d	# h, tmp3215
	rorl	$2, %r13d	#, tmp3215
	movl	%r13d, %r11d	# tmp3215, tmp3215
	movl	%r10d, %r13d	# h, tmp3216
	rorl	$13, %r13d	#, tmp3216
	movl	%r13d, %edi	# tmp3216, tmp3216
	movl	%r10d, %r13d	# h, tmp3218
	xorl	%r11d, %edi	# tmp3215, tmp3217
	roll	$10, %r13d	#, tmp3218
	xorl	%r13d, %edi	# tmp3218, tmp3219
	movl	%ebx, %r13d	# a, tmp3220
	orl	%r10d, %r13d	# h, tmp3220
	movl	%r13d, %r11d	# tmp3220, tmp3220
	movl	%ebx, %r13d	# a, tmp3222
	andl	%r10d, %r13d	# h, tmp3222
	andl	%eax, %r11d	# b, tmp3221
	orl	%r13d, %r11d	# tmp3222, tmp3223
	movl	%r12d, %r13d	# w0, tmp3231
	addl	%edi, %r11d	# tmp3219, t2
	movl	%r14d, %edi	# w3, tmp3226
	roll	$15, %r13d	#, tmp3231
	addl	%r11d, %r8d	# t2, g
	movl	%r14d, %r11d	# w3, tmp3225
	roll	$14, %edi	#, tmp3226
	rorl	$7, %r11d	#, tmp3225
	xorl	%r11d, %edi	# tmp3225, tmp3227
	movl	%r14d, %r11d	# w3, tmp3228
	shrl	$3, %r11d	#, tmp3228
	xorl	%r11d, %edi	# tmp3228, tmp3229
	movl	%r13d, %r11d	# tmp3231, tmp3231
	movl	%r12d, %r13d	# w0, tmp3232
	addl	%r15d, %edi	# w2, tmp3230
	roll	$13, %r13d	#, tmp3232
	addl	-64(%rsp), %edi	# %sfp, _2507
	movl	%r13d, %r12d	# tmp3232, tmp3232
	movl	%ebp, %r13d	# w0, tmp3234
	xorl	%r11d, %r12d	# tmp3231, tmp3233
	shrl	$10, %r13d	#, tmp3234
	xorl	%r13d, %r12d	# tmp3234, tmp3235
	addl	%r12d, %edi	# tmp3235, w2
	movl	%r8d, %r12d	# g, tmp3250
	movl	%edi, %r13d	# w2, w2
	movl	%ecx, %edi	# e, tmp3236
	roll	$10, %r12d	#, tmp3250
	xorl	%edx, %edi	# d, tmp3236
	leal	1294757372(%rsi,%r13), %r11d	#, tmp3240
	movl	%r9d, %esi	# c, tmp3242
	andl	%r9d, %edi	# c, tmp3237
	rorl	$6, %esi	#, tmp3242
	movl	%r13d, -88(%rsp)	# w2, %sfp
	xorl	%ecx, %edi	# e, tmp3238
	addl	%edi, %r11d	# tmp3238, tmp3241
	movl	%r9d, %edi	# c, tmp3243
	rorl	$11, %edi	#, tmp3243
	xorl	%esi, %edi	# tmp3242, tmp3244
	movl	%r9d, %esi	# c, tmp3245
	roll	$7, %esi	#, tmp3245
	xorl	%esi, %edi	# tmp3245, tmp3246
	movl	%r8d, %esi	# g, tmp3247
	rorl	$2, %esi	#, tmp3247
	addl	%r11d, %edi	# tmp3241, t1
	movl	%esi, %r11d	# tmp3247, tmp3247
	movl	%r8d, %esi	# g, tmp3248
	addl	%edi, %eax	# t1, b
	rorl	$13, %esi	#, tmp3248
	xorl	%r11d, %esi	# tmp3247, tmp3249
	xorl	%r12d, %esi	# tmp3250, tmp3251
	movl	%r10d, %r12d	# h, tmp3252
	orl	%r8d, %r12d	# g, tmp3252
	movl	%r12d, %r11d	# tmp3252, tmp3252
	movl	%r10d, %r12d	# h, tmp3254
	andl	%r8d, %r12d	# g, tmp3254
	andl	%ebx, %r11d	# a, tmp3253
	orl	%r12d, %r11d	# tmp3254, tmp3255
	movl	-56(%rsp), %r12d	# %sfp, w1
	addl	%esi, %r11d	# tmp3251, t2
	movl	-112(%rsp), %esi	# %sfp, w4
	addl	%r11d, %edi	# t2, f
	movl	%esi, %r13d	# w4, tmp3257
	movl	%esi, %r15d	# w4, tmp3258
	rorl	$7, %r13d	#, tmp3257
	roll	$14, %r15d	#, tmp3258
	xorl	%r13d, %r15d	# tmp3257, tmp3259
	movl	%esi, %r13d	# w4, tmp3260
	movl	%r12d, %esi	# w1, tmp3263
	shrl	$3, %r13d	#, tmp3260
	xorl	%r13d, %r15d	# tmp3260, tmp3261
	addl	%r14d, %r15d	# w3, tmp3262
	movl	%r12d, %r14d	# w1, tmp3264
	addl	-96(%rsp), %r15d	# %sfp, _2502
	roll	$15, %esi	#, tmp3263
	roll	$13, %r14d	#, tmp3264
	movl	%r14d, %ebp	# tmp3264, tmp3264
	xorl	%esi, %ebp	# tmp3263, tmp3265
	movl	%r12d, %esi	# w1, tmp3266
	movl	%r8d, %r12d	# g, tmp3286
	shrl	$10, %esi	#, tmp3266
	andl	%edi, %r12d	# f, tmp3286
	xorl	%esi, %ebp	# tmp3266, tmp3267
	leal	0(%rbp,%r15), %esi	#, w3
	movl	%esi, %r14d	# w3, w3
	movl	%edx, %esi	# d, tmp3268
	xorl	%r9d, %esi	# c, tmp3268
	leal	1396182291(%rcx,%r14), %r11d	#, tmp3272
	movl	%r14d, -52(%rsp)	# w3, %sfp
	andl	%eax, %esi	# b, tmp3269
	xorl	%edx, %esi	# d, tmp3270
	addl	%esi, %r11d	# tmp3270, tmp3273
	movl	%eax, %esi	# b, tmp3274
	rorl	$6, %esi	#, tmp3274
	movl	%esi, %ecx	# tmp3274, tmp3274
	movl	%eax, %esi	# b, tmp3275
	rorl	$11, %esi	#, tmp3275
	xorl	%ecx, %esi	# tmp3274, tmp3276
	movl	%eax, %ecx	# b, tmp3277
	roll	$7, %ecx	#, tmp3277
	xorl	%ecx, %esi	# tmp3277, tmp3278
	movl	%edi, %ecx	# f, tmp3280
	addl	%r11d, %esi	# tmp3273, t1
	movl	%edi, %r11d	# f, tmp3279
	rorl	$13, %ecx	#, tmp3280
	rorl	$2, %r11d	#, tmp3279
	addl	%esi, %ebx	# t1, a
	xorl	%r11d, %ecx	# tmp3279, tmp3281
	movl	%edi, %r11d	# f, tmp3282
	roll	$10, %r11d	#, tmp3282
	xorl	%r11d, %ecx	# tmp3282, tmp3283
	movl	%r8d, %r11d	# g, tmp3284
	orl	%edi, %r11d	# f, tmp3284
	andl	%r10d, %r11d	# h, tmp3285
	orl	%r12d, %r11d	# tmp3286, tmp3287
	addl	%ecx, %r11d	# tmp3283, t2
	addl	%r11d, %esi	# t2, e
	movl	-80(%rsp), %r11d	# %sfp, w5
	movl	%r11d, %ecx	# w5, tmp3290
	movl	%r11d, %r12d	# w5, tmp3289
	movl	%r11d, %r14d	# w5, tmp3292
	roll	$14, %ecx	#, tmp3290
	rorl	$7, %r12d	#, tmp3289
	shrl	$3, %r14d	#, tmp3292
	movl	%ecx, %r13d	# tmp3290, tmp3290
	movl	%r11d, %r15d	# w5, w5
	xorl	%r12d, %r13d	# tmp3289, tmp3291
	movl	%r9d, %r12d	# c, tmp3300
	xorl	%r14d, %r13d	# tmp3292, tmp3293
	movl	-88(%rsp), %r14d	# %sfp, w2
	addl	-112(%rsp), %r13d	# %sfp, tmp3294
	addl	-92(%rsp), %r13d	# %sfp, _2497
	xorl	%eax, %r12d	# b, tmp3300
	movl	%r14d, %ecx	# w2, tmp3295
	roll	$15, %ecx	#, tmp3295
	movl	%ecx, %r11d	# tmp3295, tmp3295
	movl	%r14d, %ecx	# w2, tmp3296
	roll	$13, %ecx	#, tmp3296
	xorl	%r11d, %ecx	# tmp3295, tmp3297
	movl	%r14d, %r11d	# w2, tmp3298
	shrl	$10, %r11d	#, tmp3298
	xorl	%r11d, %ecx	# tmp3298, tmp3299
	addl	%r13d, %ecx	# _2497, w4
	movl	%ecx, %r13d	# w4, w4
	movl	%r12d, %ecx	# tmp3300, tmp3300
	movl	%ebx, %r12d	# a, tmp3306
	rorl	$6, %r12d	#, tmp3306
	andl	%ebx, %ecx	# a, tmp3301
	leal	1695183700(%rdx,%r13), %r11d	#, tmp3304
	movl	%r12d, %edx	# tmp3306, tmp3306
	movl	%ebx, %r12d	# a, tmp3307
	xorl	%r9d, %ecx	# c, tmp3302
	rorl	$11, %r12d	#, tmp3307
	addl	%ecx, %r11d	# tmp3302, tmp3305
	movl	%r13d, -84(%rsp)	# w4, %sfp
	movl	%r12d, %ecx	# tmp3307, tmp3307
	movl	%ebx, %r12d	# a, tmp3309
	xorl	%edx, %ecx	# tmp3306, tmp3308
	roll	$7, %r12d	#, tmp3309
	xorl	%r12d, %ecx	# tmp3309, tmp3310
	movl	%esi, %r12d	# e, tmp3311
	rorl	$2, %r12d	#, tmp3311
	addl	%r11d, %ecx	# tmp3305, t1
	movl	%r12d, %r11d	# tmp3311, tmp3311
	movl	%esi, %r12d	# e, tmp3312
	addl	%ecx, %r10d	# t1, h
	rorl	$13, %r12d	#, tmp3312
	movl	%r12d, %edx	# tmp3312, tmp3312
	movl	%esi, %r12d	# e, tmp3314
	xorl	%r11d, %edx	# tmp3311, tmp3313
	roll	$10, %r12d	#, tmp3314
	xorl	%r12d, %edx	# tmp3314, tmp3315
	movl	%edi, %r12d	# f, tmp3316
	orl	%esi, %r12d	# e, tmp3316
	movl	%r12d, %r11d	# tmp3316, tmp3316
	movl	%edi, %r12d	# f, tmp3318
	andl	%esi, %r12d	# e, tmp3318
	andl	%r8d, %r11d	# g, tmp3317
	orl	%r12d, %r11d	# tmp3318, tmp3319
	addl	%edx, %r11d	# tmp3315, t2
	movl	-108(%rsp), %edx	# %sfp, w6
	addl	%r11d, %ecx	# t2, d
	movl	%edx, %ebp	# w6, tmp3321
	movl	%edx, %r12d	# w6, tmp3322
	movl	%edx, %r13d	# w6, tmp3324
	rorl	$7, %ebp	#, tmp3321
	roll	$14, %r12d	#, tmp3322
	xorl	%ebp, %r12d	# tmp3321, tmp3323
	shrl	$3, %r13d	#, tmp3324
	xorl	%r13d, %r12d	# tmp3324, tmp3325
	movl	%ebx, %r13d	# a, tmp3364
	addl	%r15d, %r12d	# w5, tmp3326
	movl	-52(%rsp), %r15d	# %sfp, w3
	addl	-60(%rsp), %r12d	# %sfp, _2492
	movl	%r15d, %r14d	# w3, tmp3327
	roll	$15, %r14d	#, tmp3327
	movl	%r14d, %r11d	# tmp3327, tmp3327
	movl	%r15d, %r14d	# w3, tmp3328
	roll	$13, %r14d	#, tmp3328
	movl	%r14d, %edx	# tmp3328, tmp3328
	movl	%r15d, %r14d	# w3, tmp3330
	xorl	%r11d, %edx	# tmp3327, tmp3329
	shrl	$10, %r14d	#, tmp3330
	xorl	%r14d, %edx	# tmp3330, tmp3331
	leal	(%rdx,%r12), %r14d	#, w5
	movl	%eax, %r12d	# b, tmp3332
	xorl	%ebx, %r12d	# a, tmp3332
	movl	%r12d, %edx	# tmp3332, tmp3332
	leal	1986661051(%r9,%r14), %r11d	#, tmp3336
	movl	%r10d, %r12d	# h, tmp3339
	andl	%r10d, %edx	# h, tmp3333
	rorl	$11, %r12d	#, tmp3339
	movl	%r10d, %r9d	# h, tmp3338
	xorl	%eax, %edx	# b, tmp3334
	rorl	$6, %r9d	#, tmp3338
	movl	%r14d, -80(%rsp)	# w5, %sfp
	addl	%edx, %r11d	# tmp3334, tmp3337
	movl	%r12d, %edx	# tmp3339, tmp3339
	movl	%ecx, %r12d	# d, tmp3346
	xorl	%r9d, %edx	# tmp3338, tmp3340
	movl	%r10d, %r9d	# h, tmp3341
	roll	$10, %r12d	#, tmp3346
	roll	$7, %r9d	#, tmp3341
	xorl	%r9d, %edx	# tmp3341, tmp3342
	movl	%ecx, %r9d	# d, tmp3343
	addl	%r11d, %edx	# tmp3337, t1
	rorl	$2, %r9d	#, tmp3343
	movl	-104(%rsp), %r11d	# %sfp, w7
	leal	(%r8,%rdx), %r15d	#, g
	movl	%r9d, %r8d	# tmp3343, tmp3343
	movl	%ecx, %r9d	# d, tmp3344
	rorl	$13, %r9d	#, tmp3344
	xorl	%r8d, %r9d	# tmp3343, tmp3345
	movl	%r11d, %ebp	# w7, tmp3354
	xorl	%r12d, %r9d	# tmp3346, tmp3347
	movl	%esi, %r12d	# e, tmp3348
	orl	%ecx, %r12d	# d, tmp3348
	movl	%r12d, %r8d	# tmp3348, tmp3348
	movl	%esi, %r12d	# e, tmp3350
	andl	%ecx, %r12d	# d, tmp3350
	andl	%edi, %r8d	# f, tmp3349
	orl	%r12d, %r8d	# tmp3350, tmp3351
	movl	%r11d, %r12d	# w7, tmp3356
	addl	%r8d, %r9d	# tmp3351, t2
	movl	%r11d, %r8d	# w7, tmp3353
	movl	-84(%rsp), %r11d	# %sfp, w4
	addl	%edx, %r9d	# t1, c
	rorl	$7, %r8d	#, tmp3353
	roll	$14, %ebp	#, tmp3354
	xorl	%r8d, %ebp	# tmp3353, tmp3355
	shrl	$3, %r12d	#, tmp3356
	xorl	%r10d, %r13d	# h, tmp3364
	movl	%r11d, %r8d	# w4, tmp3360
	xorl	%r12d, %ebp	# tmp3356, tmp3357
	movl	%r11d, %r14d	# w4, tmp3359
	addl	-108(%rsp), %ebp	# %sfp, tmp3358
	roll	$13, %r8d	#, tmp3360
	roll	$15, %r14d	#, tmp3359
	addl	-48(%rsp), %ebp	# %sfp, _2487
	movl	%r8d, %edx	# tmp3360, tmp3360
	xorl	%r14d, %edx	# tmp3359, tmp3361
	movl	%r11d, %r14d	# w4, tmp3362
	shrl	$10, %r14d	#, tmp3362
	xorl	%r14d, %edx	# tmp3362, tmp3363
	movl	-44(%rsp), %r14d	# %sfp, w0
	leal	(%rdx,%rbp), %r8d	#, w6
	movl	%r13d, %edx	# tmp3364, tmp3364
	movl	%r15d, %r13d	# g, tmp3370
	andl	%r15d, %edx	# g, tmp3365
	rorl	$6, %r13d	#, tmp3370
	leal	-2117940946(%rax,%r8), %eax	#, tmp3368
	xorl	%ebx, %edx	# a, tmp3366
	movl	%r8d, -76(%rsp)	# w6, %sfp
	addl	%eax, %edx	# tmp3368, tmp3369
	movl	%r13d, %eax	# tmp3370, tmp3370
	movl	%r15d, %r13d	# g, tmp3371
	rorl	$11, %r13d	#, tmp3371
	movl	%r13d, %r12d	# tmp3371, tmp3371
	movl	%r15d, %r13d	# g, tmp3373
	roll	$7, %r13d	#, tmp3373
	xorl	%eax, %r12d	# tmp3370, tmp3372
	movl	%r13d, %eax	# tmp3373, tmp3373
	movl	%r9d, %r13d	# c, tmp3375
	rorl	$2, %r13d	#, tmp3375
	xorl	%r12d, %eax	# tmp3372, tmp3374
	movl	%r13d, %r12d	# tmp3375, tmp3375
	movl	%r9d, %r13d	# c, tmp3376
	addl	%edx, %eax	# tmp3369, t1
	rorl	$13, %r13d	#, tmp3376
	leal	(%rdi,%rax), %r11d	#, f
	movl	%r13d, %edx	# tmp3376, tmp3376
	movl	%r9d, %r13d	# c, tmp3378
	xorl	%r12d, %edx	# tmp3375, tmp3377
	roll	$10, %r13d	#, tmp3378
	xorl	%r13d, %edx	# tmp3378, tmp3379
	movl	%ecx, %r13d	# d, tmp3380
	orl	%r9d, %r13d	# c, tmp3380
	movl	%r13d, %edi	# tmp3380, tmp3380
	movl	%ecx, %r13d	# d, tmp3382
	andl	%r9d, %r13d	# c, tmp3382
	andl	%esi, %edi	# e, tmp3381
	orl	%r13d, %edi	# tmp3382, tmp3383
	movl	-72(%rsp), %r13d	# %sfp, w8
	addl	%edx, %edi	# tmp3379, t2
	leal	(%rdi,%rax), %r12d	#, b
	movl	%r10d, %eax	# h, tmp3396
	movl	%r13d, %edi	# w8, tmp3385
	movl	%r13d, %r8d	# w8, tmp3386
	movl	%r13d, %edx	# w8, tmp3388
	rorl	$7, %edi	#, tmp3385
	roll	$14, %r8d	#, tmp3386
	shrl	$3, %edx	#, tmp3388
	xorl	%edi, %r8d	# tmp3385, tmp3387
	xorl	%r15d, %eax	# g, tmp3396
	xorl	%edx, %r8d	# tmp3388, tmp3389
	addl	-104(%rsp), %r8d	# %sfp, tmp3390
	andl	%r11d, %eax	# f, tmp3397
	xorl	%r10d, %eax	# h, tmp3398
	leal	(%r8,%r14), %ebp	#, _2482
	movl	-80(%rsp), %r8d	# %sfp, w5
	movl	%r8d, %edi	# w5, tmp3391
	roll	$15, %edi	#, tmp3391
	movl	%edi, %r14d	# tmp3391, tmp3391
	movl	%r8d, %edi	# w5, w5
	roll	$13, %r8d	#, tmp3392
	xorl	%r14d, %r8d	# tmp3391, tmp3393
	shrl	$10, %edi	#, tmp3394
	xorl	%edi, %r8d	# tmp3394, tmp3395
	addl	%r8d, %ebp	# tmp3395, w7
	leal	-1838011259(%rbx,%rbp), %edx	#, tmp3400
	movl	%r11d, %ebx	# f, tmp3402
	movl	%ebp, -72(%rsp)	# w7, %sfp
	rorl	$6, %ebx	#, tmp3402
	addl	%eax, %edx	# tmp3398, tmp3401
	movl	%ebx, %eax	# tmp3402, tmp3402
	movl	%r11d, %ebx	# f, tmp3403
	rorl	$11, %ebx	#, tmp3403
	movl	%ebx, %r14d	# tmp3403, tmp3403
	movl	%r11d, %ebx	# f, tmp3405
	roll	$7, %ebx	#, tmp3405
	xorl	%eax, %r14d	# tmp3402, tmp3404
	movl	%ebx, %eax	# tmp3405, tmp3405
	movl	-68(%rsp), %ebx	# %sfp, w9
	xorl	%r14d, %eax	# tmp3404, tmp3406
	addl	%edx, %eax	# tmp3401, t1
	leal	(%rsi,%rax), %ebp	#, e
	movl	%r12d, %esi	# b, tmp3407
	movl	%ebx, %edi	# w9, tmp3418
	rorl	$2, %esi	#, tmp3407
	movl	%ebx, %r8d	# w9, tmp3420
	movl	%esi, %r14d	# tmp3407, tmp3407
	movl	%r12d, %esi	# b, tmp3408
	rorl	$13, %esi	#, tmp3408
	movl	%esi, %edx	# tmp3408, tmp3408
	movl	%r12d, %esi	# b, tmp3410
	xorl	%r14d, %edx	# tmp3407, tmp3409
	roll	$10, %esi	#, tmp3410
	xorl	%esi, %edx	# tmp3410, tmp3411
	movl	%r9d, %esi	# c, tmp3412
	orl	%r12d, %esi	# b, tmp3412
	movl	%esi, %r14d	# tmp3412, tmp3412
	movl	%r9d, %esi	# c, tmp3414
	andl	%r12d, %esi	# b, tmp3414
	andl	%ecx, %r14d	# d, tmp3413
	orl	%esi, %r14d	# tmp3414, tmp3415
	movl	%ebx, %esi	# w9, tmp3417
	addl	%edx, %r14d	# tmp3411, t2
	addl	%eax, %r14d	# t1, a
	rorl	$7, %esi	#, tmp3417
	roll	$14, %edi	#, tmp3418
	xorl	%esi, %edi	# tmp3417, tmp3419
	shrl	$3, %r8d	#, tmp3420
	xorl	%r8d, %edi	# tmp3420, tmp3421
	movl	-76(%rsp), %r8d	# %sfp, w6
	addl	%r13d, %edi	# w8, tmp3422
	addl	-56(%rsp), %edi	# %sfp, _2477
	movl	%r8d, %esi	# w6, tmp3424
	movl	%r8d, %r13d	# w6, tmp3423
	roll	$13, %esi	#, tmp3424
	roll	$15, %r13d	#, tmp3423
	movl	%esi, %eax	# tmp3424, tmp3424
	xorl	%r13d, %eax	# tmp3423, tmp3425
	movl	%r8d, %r13d	# w6, tmp3426
	shrl	$10, %r13d	#, tmp3426
	xorl	%r13d, %eax	# tmp3426, tmp3427
	movl	%r15d, %r13d	# g, tmp3428
	leal	(%rax,%rdi), %esi	#, w8
	xorl	%r11d, %r13d	# f, tmp3428
	movl	-100(%rsp), %edi	# %sfp, w10
	movl	%r13d, %eax	# tmp3428, tmp3428
	movl	%ebp, %r13d	# e, tmp3434
	leal	-1564481375(%r10,%rsi), %edx	#, tmp3432
	movl	%ebp, %r10d	# e, tmp3435
	rorl	$6, %r13d	#, tmp3434
	rorl	$11, %r10d	#, tmp3435
	andl	%ebp, %eax	# e, tmp3429
	movl	%esi, -68(%rsp)	# w8, %sfp
	xorl	%r13d, %r10d	# tmp3434, tmp3436
	movl	%ebp, %r13d	# e, tmp3437
	xorl	%r15d, %eax	# g, tmp3430
	roll	$7, %r13d	#, tmp3437
	addl	%eax, %edx	# tmp3430, tmp3433
	movl	%edi, %esi	# w10, tmp3450
	movl	%r13d, %eax	# tmp3437, tmp3437
	movl	%r14d, %r13d	# a, tmp3440
	xorl	%r10d, %eax	# tmp3436, tmp3438
	rorl	$13, %r13d	#, tmp3440
	movl	%r14d, %r10d	# a, tmp3439
	addl	%edx, %eax	# tmp3433, t1
	rorl	$2, %r10d	#, tmp3439
	movl	%r13d, %edx	# tmp3440, tmp3440
	xorl	%r10d, %edx	# tmp3439, tmp3441
	movl	%r14d, %r10d	# a, tmp3442
	movl	%r12d, %r13d	# b, tmp3446
	roll	$10, %r10d	#, tmp3442
	andl	%r14d, %r13d	# a, tmp3446
	leal	(%rcx,%rax), %r8d	#, d
	xorl	%r10d, %edx	# tmp3442, tmp3443
	movl	%r12d, %r10d	# b, tmp3444
	movl	%edi, %ecx	# w10, tmp3449
	orl	%r14d, %r10d	# a, tmp3444
	andl	%r9d, %r10d	# c, tmp3445
	orl	%r13d, %r10d	# tmp3446, tmp3447
	addl	%edx, %r10d	# tmp3443, t2
	movl	-72(%rsp), %edx	# %sfp, w7
	addl	%eax, %r10d	# t1, h
	rorl	$7, %ecx	#, tmp3449
	roll	$14, %esi	#, tmp3450
	xorl	%ecx, %esi	# tmp3449, tmp3451
	shrl	$3, %edi	#, tmp3452
	movl	%edx, %ecx	# w7, tmp3456
	movl	%edx, %r13d	# w7, tmp3455
	xorl	%edi, %esi	# tmp3452, tmp3453
	roll	$13, %ecx	#, tmp3456
	roll	$15, %r13d	#, tmp3455
	addl	%ebx, %esi	# w9, tmp3454
	movl	%ecx, %eax	# tmp3456, tmp3456
	addl	-88(%rsp), %esi	# %sfp, _2472
	movl	-68(%rsp), %ebx	# %sfp, w8
	xorl	%r13d, %eax	# tmp3455, tmp3457
	movl	%edx, %r13d	# w7, tmp3458
	shrl	$10, %r13d	#, tmp3458
	xorl	%r13d, %eax	# tmp3458, tmp3459
	movl	%r11d, %r13d	# f, tmp3460
	xorl	%ebp, %r13d	# e, tmp3460
	leal	(%rax,%rsi), %ecx	#, w9
	movl	%r8d, %esi	# d, tmp3467
	movl	%r13d, %eax	# tmp3460, tmp3460
	movl	%r8d, %r13d	# d, tmp3466
	rorl	$11, %esi	#, tmp3467
	rorl	$6, %r13d	#, tmp3466
	andl	%r8d, %eax	# d, tmp3461
	leal	-1474664885(%r15,%rcx), %edx	#, tmp3464
	xorl	%r13d, %esi	# tmp3466, tmp3468
	movl	%r8d, %r13d	# d, tmp3469
	xorl	%r11d, %eax	# f, tmp3462
	roll	$7, %r13d	#, tmp3469
	addl	%eax, %edx	# tmp3462, tmp3465
	movl	-64(%rsp), %r15d	# %sfp, w11
	xorl	%r13d, %esi	# tmp3469, tmp3470
	movl	%r10d, %r13d	# h, tmp3472
	movl	%ecx, -112(%rsp)	# w9, %sfp
	leal	(%rdx,%rsi), %eax	#, t1
	rorl	$13, %r13d	#, tmp3472
	movl	%r10d, %esi	# h, tmp3471
	rorl	$2, %esi	#, tmp3471
	movl	%r13d, %edx	# tmp3472, tmp3472
	movl	%r14d, %r13d	# a, tmp3478
	xorl	%esi, %edx	# tmp3471, tmp3473
	movl	%r10d, %esi	# h, tmp3474
	andl	%r10d, %r13d	# h, tmp3478
	roll	$10, %esi	#, tmp3474
	addl	%eax, %r9d	# t1, c
	movl	%r15d, %ecx	# w11, tmp3482
	xorl	%esi, %edx	# tmp3474, tmp3475
	movl	%r14d, %esi	# a, tmp3476
	orl	%r10d, %esi	# h, tmp3476
	andl	%r12d, %esi	# b, tmp3477
	orl	%r13d, %esi	# tmp3478, tmp3479
	addl	%edx, %esi	# tmp3475, t2
	movl	%r15d, %edx	# w11, tmp3481
	roll	$14, %ecx	#, tmp3482
	rorl	$7, %edx	#, tmp3481
	addl	%eax, %esi	# t1, g
	xorl	%edx, %ecx	# tmp3481, tmp3483
	movl	%r15d, %edx	# w11, tmp3484
	shrl	$3, %edx	#, tmp3484
	xorl	%edx, %ecx	# tmp3484, tmp3485
	movl	%ebx, %edx	# w8, tmp3487
	addl	-100(%rsp), %ecx	# %sfp, tmp3486
	roll	$15, %edx	#, tmp3487
	addl	-52(%rsp), %ecx	# %sfp, _2467
	movl	%edx, %r13d	# tmp3487, tmp3487
	movl	%ebx, %edx	# w8, tmp3488
	roll	$13, %edx	#, tmp3488
	movl	%edx, %eax	# tmp3488, tmp3488
	movl	%ebx, %edx	# w8, tmp3490
	xorl	%r13d, %eax	# tmp3487, tmp3489
	shrl	$10, %edx	#, tmp3490
	movl	%ebp, %r13d	# e, tmp3492
	xorl	%edx, %eax	# tmp3490, tmp3491
	xorl	%r8d, %r13d	# d, tmp3492
	leal	(%rax,%rcx), %edi	#, w10
	movl	%r13d, %eax	# tmp3492, tmp3492
	movl	%r9d, %r13d	# c, tmp3501
	andl	%r9d, %eax	# c, tmp3493
	roll	$7, %r13d	#, tmp3501
	leal	-1035236496(%r11,%rdi), %ecx	#, tmp3496
	movl	%r9d, %r11d	# c, tmp3498
	xorl	%ebp, %eax	# e, tmp3494
	rorl	$6, %r11d	#, tmp3498
	movl	%edi, -108(%rsp)	# w10, %sfp
	addl	%eax, %ecx	# tmp3494, tmp3497
	movl	%r11d, %eax	# tmp3498, tmp3498
	movl	%r9d, %r11d	# c, tmp3499
	rorl	$11, %r11d	#, tmp3499
	xorl	%eax, %r11d	# tmp3498, tmp3500
	movl	%r13d, %eax	# tmp3501, tmp3501
	movl	%r8d, %r13d	# d, tmp3524
	xorl	%r11d, %eax	# tmp3500, tmp3502
	addl	%ecx, %eax	# tmp3497, t1
	leal	(%r12,%rax), %edi	#, b
	movl	%esi, %r12d	# g, tmp3503
	rorl	$2, %r12d	#, tmp3503
	movl	%r12d, %r11d	# tmp3503, tmp3503
	movl	%esi, %r12d	# g, tmp3504
	rorl	$13, %r12d	#, tmp3504
	movl	%r12d, %ecx	# tmp3504, tmp3504
	movl	%esi, %r12d	# g, tmp3506
	xorl	%r11d, %ecx	# tmp3503, tmp3505
	roll	$10, %r12d	#, tmp3506
	xorl	%r12d, %ecx	# tmp3506, tmp3507
	movl	%r10d, %r12d	# h, tmp3508
	orl	%esi, %r12d	# g, tmp3508
	movl	%r12d, %edx	# tmp3508, tmp3508
	movl	%r10d, %r12d	# h, tmp3510
	andl	%esi, %r12d	# g, tmp3510
	andl	%r14d, %edx	# a, tmp3509
	orl	%r12d, %edx	# tmp3510, tmp3511
	xorl	%r9d, %r13d	# c, tmp3524
	addl	%ecx, %edx	# tmp3507, t2
	leal	(%rdx,%rax), %r11d	#, f
	movl	-96(%rsp), %edx	# %sfp, w12
	movl	%edx, %ecx	# w12, tmp3513
	rorl	$7, %ecx	#, tmp3513
	movl	%ecx, %eax	# tmp3513, tmp3513
	movl	%edx, %ecx	# w12, w12
	roll	$14, %edx	#, tmp3514
	movl	%ecx, %r12d	# w12, tmp3516
	movl	-112(%rsp), %ecx	# %sfp, w9
	xorl	%eax, %edx	# tmp3513, tmp3515
	shrl	$3, %r12d	#, tmp3516
	xorl	%r12d, %edx	# tmp3516, tmp3517
	addl	%r15d, %edx	# w11, tmp3518
	movl	%ecx, %r15d	# w9, tmp3519
	addl	-84(%rsp), %edx	# %sfp, _2462
	roll	$15, %r15d	#, tmp3519
	movl	%r15d, %ebx	# tmp3519, tmp3519
	movl	%ecx, %r15d	# w9, tmp3520
	roll	$13, %r15d	#, tmp3520
	movl	%r15d, %eax	# tmp3520, tmp3520
	movl	%ecx, %r15d	# w9, tmp3522
	xorl	%ebx, %eax	# tmp3519, tmp3521
	shrl	$10, %r15d	#, tmp3522
	xorl	%r15d, %eax	# tmp3522, tmp3523
	movl	-92(%rsp), %r15d	# %sfp, w13
	leal	(%rax,%rdx), %r12d	#, w11
	movl	%r13d, %eax	# tmp3524, tmp3524
	andl	%edi, %eax	# b, tmp3525
	leal	-949202525(%rbp,%r12), %edx	#, tmp3528
	movl	%edi, %ebp	# b, tmp3530
	xorl	%r8d, %eax	# d, tmp3526
	rorl	$6, %ebp	#, tmp3530
	movl	%r12d, -104(%rsp)	# w11, %sfp
	addl	%eax, %edx	# tmp3526, tmp3529
	movl	%ebp, %eax	# tmp3530, tmp3530
	movl	%edi, %ebp	# b, tmp3531
	rorl	$11, %ebp	#, tmp3531
	movl	%ebp, %r13d	# tmp3531, tmp3531
	movl	%edi, %ebp	# b, tmp3533
	roll	$7, %ebp	#, tmp3533
	xorl	%eax, %r13d	# tmp3530, tmp3532
	movl	%ebp, %eax	# tmp3533, tmp3533
	xorl	%r13d, %eax	# tmp3532, tmp3534
	movl	%r11d, %r13d	# f, tmp3535
	addl	%edx, %eax	# tmp3529, t1
	rorl	$2, %r13d	#, tmp3535
	leal	(%r14,%rax), %ebp	#, a
	movl	%r11d, %r14d	# f, tmp3536
	rorl	$13, %r14d	#, tmp3536
	movl	%r14d, %edx	# tmp3536, tmp3536
	movl	%esi, %r14d	# g, tmp3540
	xorl	%r13d, %edx	# tmp3535, tmp3537
	movl	%r11d, %r13d	# f, tmp3538
	orl	%r11d, %r14d	# f, tmp3540
	roll	$10, %r13d	#, tmp3538
	movl	%r14d, %ebx	# tmp3540, tmp3540
	movl	-108(%rsp), %r14d	# %sfp, w10
	xorl	%r13d, %edx	# tmp3538, tmp3539
	movl	%esi, %r13d	# g, tmp3542
	andl	%r10d, %ebx	# h, tmp3541
	andl	%r11d, %r13d	# f, tmp3542
	orl	%r13d, %ebx	# tmp3542, tmp3543
	movl	%r14d, %r12d	# w10, tmp3551
	addl	%edx, %ebx	# tmp3539, t2
	movl	%r15d, %edx	# w13, tmp3545
	roll	$15, %r12d	#, tmp3551
	rorl	$7, %edx	#, tmp3545
	leal	(%rbx,%rax), %r13d	#, e
	movl	%r12d, %ebx	# tmp3551, tmp3551
	movl	%edx, %eax	# tmp3545, tmp3545
	movl	%r15d, %edx	# w13, tmp3546
	shrl	$3, %r15d	#, tmp3548
	roll	$14, %edx	#, tmp3546
	movl	%r14d, %r12d	# w10, tmp3552
	xorl	%eax, %edx	# tmp3545, tmp3547
	roll	$13, %r12d	#, tmp3552
	xorl	%r15d, %edx	# tmp3548, tmp3549
	addl	-96(%rsp), %edx	# %sfp, tmp3550
	movl	%r12d, %eax	# tmp3552, tmp3552
	addl	-80(%rsp), %edx	# %sfp, _2457
	movl	%r14d, %r12d	# w10, tmp3554
	xorl	%ebx, %eax	# tmp3551, tmp3553
	shrl	$10, %r12d	#, tmp3554
	xorl	%r12d, %eax	# tmp3554, tmp3555
	movl	-60(%rsp), %r12d	# %sfp, w14
	leal	(%rax,%rdx), %ecx	#, w12
	movl	%r9d, %eax	# c, tmp3556
	xorl	%edi, %eax	# b, tmp3556
	movl	%r12d, %r14d	# w14, tmp3577
	andl	%ebp, %eax	# a, tmp3557
	leal	-778901479(%r8,%rcx), %edx	#, tmp3560
	movl	%ebp, %r8d	# a, tmp3562
	xorl	%r9d, %eax	# c, tmp3558
	rorl	$6, %r8d	#, tmp3562
	movl	%ecx, -96(%rsp)	# w12, %sfp
	addl	%eax, %edx	# tmp3558, tmp3561
	movl	%r8d, %eax	# tmp3562, tmp3562
	movl	%ebp, %r8d	# a, tmp3563
	rorl	$11, %r8d	#, tmp3563
	movl	%r8d, %ecx	# tmp3563, tmp3563
	movl	%ebp, %r8d	# a, tmp3565
	xorl	%eax, %ecx	# tmp3562, tmp3564
	roll	$7, %r8d	#, tmp3565
	xorl	%r8d, %ecx	# tmp3565, tmp3566
	movl	%r13d, %r8d	# e, tmp3567
	rorl	$2, %r8d	#, tmp3567
	leal	(%rdx,%rcx), %eax	#, t1
	movl	%r8d, %ecx	# tmp3567, tmp3567
	movl	%r13d, %r8d	# e, tmp3568
	rorl	$13, %r8d	#, tmp3568
	addl	%eax, %r10d	# t1, h
	movl	%r8d, %edx	# tmp3568, tmp3568
	movl	%r13d, %r8d	# e, tmp3570
	xorl	%ecx, %edx	# tmp3567, tmp3569
	roll	$10, %r8d	#, tmp3570
	xorl	%r8d, %edx	# tmp3570, tmp3571
	movl	%r11d, %r8d	# f, tmp3572
	orl	%r13d, %r8d	# e, tmp3572
	movl	%r8d, %ecx	# tmp3572, tmp3572
	movl	%r11d, %r8d	# f, tmp3574
	andl	%r13d, %r8d	# e, tmp3574
	andl	%esi, %ecx	# g, tmp3573
	orl	%r8d, %ecx	# tmp3574, tmp3575
	rorl	$7, %r14d	#, tmp3577
	movl	-76(%rsp), %r8d	# %sfp, w6
	movl	%r14d, %r15d	# tmp3577, tmp3577
	movl	%r12d, %r14d	# w14, tmp3578
	shrl	$3, %r12d	#, tmp3580
	roll	$14, %r14d	#, tmp3578
	addl	%edx, %ecx	# tmp3571, t2
	movl	-104(%rsp), %edx	# %sfp, w11
	xorl	%r15d, %r14d	# tmp3577, tmp3579
	addl	%eax, %ecx	# t1, d
	xorl	%r12d, %r14d	# tmp3580, tmp3581
	addl	-92(%rsp), %r14d	# %sfp, tmp3582
	movl	-96(%rsp), %r12d	# %sfp, w12
	leal	(%r14,%r8), %r15d	#, _2452
	movl	%edx, %r8d	# w11, tmp3583
	roll	$15, %r8d	#, tmp3583
	movl	%r8d, %eax	# tmp3583, tmp3583
	movl	%edx, %r8d	# w11, tmp3584
	roll	$13, %r8d	#, tmp3584
	movl	%r8d, %r14d	# tmp3584, tmp3584
	movl	%edx, %r8d	# w11, tmp3586
	xorl	%eax, %r14d	# tmp3583, tmp3585
	shrl	$10, %r8d	#, tmp3586
	movl	%edi, %eax	# b, tmp3588
	xorl	%r8d, %r14d	# tmp3586, tmp3587
	xorl	%ebp, %eax	# a, tmp3588
	leal	(%r14,%r15), %r8d	#, w13
	andl	%r10d, %eax	# h, tmp3589
	movl	-48(%rsp), %r15d	# %sfp, w15
	xorl	%edi, %eax	# b, tmp3590
	leal	-694614492(%r9,%r8), %edx	#, tmp3592
	movl	%r10d, %r9d	# h, tmp3594
	movl	%r8d, -100(%rsp)	# w13, %sfp
	rorl	$6, %r9d	#, tmp3594
	addl	%eax, %edx	# tmp3590, tmp3593
	movl	%r9d, %eax	# tmp3594, tmp3594
	movl	%r10d, %r9d	# h, tmp3595
	rorl	$11, %r9d	#, tmp3595
	movl	%r9d, %r14d	# tmp3595, tmp3595
	movl	%r10d, %r9d	# h, tmp3597
	xorl	%eax, %r14d	# tmp3594, tmp3596
	roll	$7, %r9d	#, tmp3597
	xorl	%r9d, %r14d	# tmp3597, tmp3598
	movl	%ecx, %r9d	# d, tmp3599
	rorl	$2, %r9d	#, tmp3599
	leal	(%rdx,%r14), %eax	#, t1
	movl	%r9d, %r14d	# tmp3599, tmp3599
	movl	%ecx, %r9d	# d, tmp3600
	rorl	$13, %r9d	#, tmp3600
	addl	%eax, %esi	# t1, g
	movl	%r9d, %edx	# tmp3600, tmp3600
	movl	%ecx, %r9d	# d, tmp3602
	xorl	%r14d, %edx	# tmp3599, tmp3601
	roll	$10, %r9d	#, tmp3602
	xorl	%r9d, %edx	# tmp3602, tmp3603
	movl	%r13d, %r9d	# e, tmp3604
	orl	%ecx, %r9d	# d, tmp3604
	movl	%r9d, %r14d	# tmp3604, tmp3604
	movl	%r13d, %r9d	# e, tmp3606
	andl	%ecx, %r9d	# d, tmp3606
	andl	%r11d, %r14d	# f, tmp3605
	orl	%r9d, %r14d	# tmp3606, tmp3607
	addl	%edx, %r14d	# tmp3603, t2
	movl	%r15d, %edx	# w15, tmp3609
	rorl	$7, %edx	#, tmp3609
	addl	%eax, %r14d	# t1, c
	movl	%edx, %ebx	# tmp3609, tmp3609
	movl	%r15d, %edx	# w15, w15
	roll	$14, %r15d	#, tmp3610
	movl	%r15d, %eax	# tmp3610, tmp3610
	movl	%edx, %r9d	# w15, tmp3612
	movl	%edx, %r15d	# w15, w15
	xorl	%ebx, %eax	# tmp3609, tmp3611
	shrl	$3, %r9d	#, tmp3612
	xorl	%r9d, %eax	# tmp3612, tmp3613
	movl	%r12d, %r9d	# w12, tmp3615
	addl	-60(%rsp), %eax	# %sfp, tmp3614
	roll	$15, %r9d	#, tmp3615
	addl	-72(%rsp), %eax	# %sfp, _2447
	movl	%r9d, %r8d	# tmp3615, tmp3615
	movl	%r12d, %r9d	# w12, tmp3616
	roll	$13, %r9d	#, tmp3616
	movl	%r9d, %edx	# tmp3616, tmp3616
	movl	%r12d, %r9d	# w12, tmp3618
	xorl	%r8d, %edx	# tmp3615, tmp3617
	shrl	$10, %r9d	#, tmp3618
	xorl	%r9d, %edx	# tmp3618, tmp3619
	movl	%ebp, %r9d	# a, tmp3620
	leal	(%rdx,%rax), %r12d	#, w14
	xorl	%r10d, %r9d	# h, tmp3620
	movl	%r9d, %eax	# tmp3620, tmp3620
	movl	%esi, %r9d	# g, tmp3626
	andl	%esi, %eax	# g, tmp3621
	leal	-200395387(%rdi,%r12), %edx	#, tmp3624
	rorl	$6, %r9d	#, tmp3626
	xorl	%ebp, %eax	# a, tmp3622
	movl	%r12d, -92(%rsp)	# w14, %sfp
	movl	-44(%rsp), %r12d	# %sfp, w0
	addl	%eax, %edx	# tmp3622, tmp3625
	movl	%r9d, %eax	# tmp3626, tmp3626
	movl	%esi, %r9d	# g, tmp3627
	rorl	$11, %r9d	#, tmp3627
	movl	%r9d, %r8d	# tmp3627, tmp3627
	movl	%esi, %r9d	# g, tmp3629
	xorl	%eax, %r8d	# tmp3626, tmp3628
	roll	$7, %r9d	#, tmp3629
	xorl	%r9d, %r8d	# tmp3629, tmp3630
	movl	-100(%rsp), %r9d	# %sfp, w13
	leal	(%rdx,%r8), %eax	#, t1
	leal	(%r11,%rax), %edx	#, f
	movl	%r14d, %r11d	# c, tmp3631
	rorl	$2, %r11d	#, tmp3631
	movl	%r11d, %r8d	# tmp3631, tmp3631
	movl	%r14d, %r11d	# c, tmp3632
	rorl	$13, %r11d	#, tmp3632
	movl	%r11d, %edi	# tmp3632, tmp3632
	movl	%r14d, %r11d	# c, tmp3634
	xorl	%r8d, %edi	# tmp3631, tmp3633
	roll	$10, %r11d	#, tmp3634
	xorl	%r11d, %edi	# tmp3634, tmp3635
	movl	%ecx, %r11d	# d, tmp3636
	orl	%r14d, %r11d	# c, tmp3636
	movl	%r11d, %r8d	# tmp3636, tmp3636
	movl	%ecx, %r11d	# d, tmp3638
	andl	%r14d, %r11d	# c, tmp3638
	andl	%r13d, %r8d	# e, tmp3637
	orl	%r11d, %r8d	# tmp3638, tmp3639
	movl	%r12d, %r11d	# w0, tmp3641
	addl	%edi, %r8d	# tmp3635, t2
	movl	%r12d, %edi	# w0, tmp3642
	rorl	$7, %r11d	#, tmp3641
	roll	$14, %edi	#, tmp3642
	addl	%eax, %r8d	# t1, b
	movl	%edi, %ebx	# tmp3642, tmp3642
	xorl	%r11d, %ebx	# tmp3641, tmp3643
	movl	%r12d, %r11d	# w0, tmp3644
	shrl	$3, %r11d	#, tmp3644
	xorl	%r11d, %ebx	# tmp3644, tmp3645
	movl	%r9d, %r11d	# w13, tmp3647
	roll	$15, %r11d	#, tmp3647
	addl	%r15d, %ebx	# w15, tmp3646
	addl	-68(%rsp), %ebx	# %sfp, _2442
	movl	%r11d, %edi	# tmp3647, tmp3647
	movl	%r9d, %r11d	# w13, tmp3648
	movl	-56(%rsp), %r15d	# %sfp, w1
	roll	$13, %r11d	#, tmp3648
	movl	%r11d, %eax	# tmp3648, tmp3648
	movl	%r9d, %r11d	# w13, tmp3650
	movl	%r10d, %r9d	# h, tmp3652
	xorl	%edi, %eax	# tmp3647, tmp3649
	shrl	$10, %r11d	#, tmp3650
	xorl	%esi, %r9d	# g, tmp3652
	xorl	%r11d, %eax	# tmp3650, tmp3651
	movl	%r9d, %edi	# tmp3652, tmp3652
	leal	(%rax,%rbx), %r11d	#, w15
	andl	%edx, %edi	# f, tmp3653
	xorl	%r10d, %edi	# h, tmp3654
	leal	275423344(%rbp,%r11), %r9d	#, tmp3656
	movl	%edx, %ebp	# f, tmp3658
	movl	%r11d, -64(%rsp)	# w15, %sfp
	rorl	$6, %ebp	#, tmp3658
	movl	%r15d, %r11d	# w1, tmp3674
	addl	%edi, %r9d	# tmp3654, tmp3657
	movl	%ebp, %edi	# tmp3658, tmp3658
	movl	%edx, %ebp	# f, tmp3659
	rorl	$11, %ebp	#, tmp3659
	movl	%ebp, %eax	# tmp3659, tmp3659
	movl	%edx, %ebp	# f, tmp3661
	xorl	%edi, %eax	# tmp3658, tmp3660
	roll	$7, %ebp	#, tmp3661
	xorl	%ebp, %eax	# tmp3661, tmp3662
	movl	%r8d, %ebp	# b, tmp3663
	rorl	$2, %ebp	#, tmp3663
	leal	(%r9,%rax), %edi	#, t1
	movl	%ebp, %eax	# tmp3663, tmp3663
	movl	%r8d, %ebp	# b, tmp3664
	rorl	$13, %ebp	#, tmp3664
	leal	0(%r13,%rdi), %ebx	#, e
	movl	-92(%rsp), %r13d	# %sfp, w14
	movl	%ebp, %r9d	# tmp3664, tmp3664
	movl	%r8d, %ebp	# b, tmp3666
	xorl	%eax, %r9d	# tmp3663, tmp3665
	roll	$10, %ebp	#, tmp3666
	xorl	%ebp, %r9d	# tmp3666, tmp3667
	movl	%r14d, %ebp	# c, tmp3668
	orl	%r8d, %ebp	# b, tmp3668
	movl	%ebp, %eax	# tmp3668, tmp3668
	movl	%r14d, %ebp	# c, tmp3670
	andl	%r8d, %ebp	# b, tmp3670
	andl	%ecx, %eax	# d, tmp3669
	orl	%ebp, %eax	# tmp3670, tmp3671
	movl	%r15d, %ebp	# w1, tmp3673
	roll	$14, %r11d	#, tmp3674
	rorl	$7, %ebp	#, tmp3673
	addl	%r9d, %eax	# tmp3667, t2
	movl	%esi, %r9d	# g, tmp3684
	xorl	%ebp, %r11d	# tmp3673, tmp3675
	movl	%r15d, %ebp	# w1, tmp3676
	addl	%edi, %eax	# t1, a
	shrl	$3, %ebp	#, tmp3676
	movl	%r13d, %edi	# w14, tmp3680
	xorl	%edx, %r9d	# f, tmp3684
	xorl	%ebp, %r11d	# tmp3676, tmp3677
	movl	%r13d, %ebp	# w14, tmp3679
	roll	$13, %edi	#, tmp3680
	addl	%r12d, %r11d	# w0, tmp3678
	roll	$15, %ebp	#, tmp3679
	addl	-112(%rsp), %r11d	# %sfp, _2437
	xorl	%ebp, %edi	# tmp3679, tmp3681
	movl	%r13d, %ebp	# w14, tmp3682
	movl	-64(%rsp), %r12d	# %sfp, w15
	shrl	$10, %ebp	#, tmp3682
	xorl	%ebp, %edi	# tmp3682, tmp3683
	leal	(%rdi,%r11), %r13d	#, w0
	movl	%r9d, %edi	# tmp3684, tmp3684
	andl	%ebx, %edi	# e, tmp3685
	leal	430227734(%r10,%r13), %r9d	#, tmp3688
	movl	%ebx, %r10d	# e, tmp3690
	xorl	%esi, %edi	# g, tmp3686
	rorl	$6, %r10d	#, tmp3690
	movl	%r13d, -60(%rsp)	# w0, %sfp
	movl	-60(%rsp), %ebp	# %sfp, w0
	addl	%edi, %r9d	# tmp3686, tmp3689
	movl	%r10d, %edi	# tmp3690, tmp3690
	movl	%ebx, %r10d	# e, tmp3691
	rorl	$11, %r10d	#, tmp3691
	movl	%r10d, %r11d	# tmp3691, tmp3691
	movl	%ebx, %r10d	# e, tmp3693
	xorl	%edi, %r11d	# tmp3690, tmp3692
	roll	$7, %r10d	#, tmp3693
	xorl	%r10d, %r11d	# tmp3693, tmp3694
	movl	%eax, %r10d	# a, tmp3695
	leal	(%r9,%r11), %edi	#, t1
	movl	%eax, %r9d	# a, tmp3696
	rorl	$2, %r10d	#, tmp3695
	rorl	$13, %r9d	#, tmp3696
	xorl	%r10d, %r9d	# tmp3695, tmp3697
	movl	%eax, %r10d	# a, tmp3698
	addl	%edi, %ecx	# t1, d
	roll	$10, %r10d	#, tmp3698
	xorl	%r10d, %r9d	# tmp3698, tmp3699
	movl	%r8d, %r10d	# b, tmp3700
	orl	%eax, %r10d	# a, tmp3700
	movl	%r10d, %r11d	# tmp3700, tmp3700
	movl	%r8d, %r10d	# b, tmp3702
	andl	%r14d, %r11d	# c, tmp3701
	andl	%eax, %r10d	# a, tmp3702
	orl	%r10d, %r11d	# tmp3702, tmp3703
	movl	%r12d, %r10d	# w15, tmp3711
	addl	%r9d, %r11d	# tmp3699, t2
	roll	$15, %r10d	#, tmp3711
	addl	%edi, %r11d	# t1, h
	movl	-88(%rsp), %edi	# %sfp, w2
	movl	%edi, %r13d	# w2, tmp3705
	movl	%edi, %r9d	# w2, tmp3706
	rorl	$7, %r13d	#, tmp3705
	roll	$14, %r9d	#, tmp3706
	xorl	%r13d, %r9d	# tmp3705, tmp3707
	movl	%edi, %r13d	# w2, tmp3708
	movl	%r10d, %edi	# tmp3711, tmp3711
	shrl	$3, %r13d	#, tmp3708
	movl	%r12d, %r10d	# w15, tmp3712
	xorl	%r13d, %r9d	# tmp3708, tmp3709
	roll	$13, %r10d	#, tmp3712
	addl	%r15d, %r9d	# w1, tmp3710
	addl	-108(%rsp), %r9d	# %sfp, _2432
	movl	%r10d, %r13d	# tmp3712, tmp3712
	movl	%r12d, %r10d	# w15, tmp3714
	xorl	%edi, %r13d	# tmp3711, tmp3713
	movl	%edx, %edi	# f, tmp3716
	shrl	$10, %r10d	#, tmp3714
	xorl	%ebx, %edi	# e, tmp3716
	movl	-52(%rsp), %r15d	# %sfp, w3
	xorl	%r10d, %r13d	# tmp3714, tmp3715
	andl	%ecx, %edi	# d, tmp3717
	movl	%ecx, %r10d	# d, tmp3723
	addl	%r9d, %r13d	# _2432, w1
	xorl	%edx, %edi	# f, tmp3718
	rorl	$11, %r10d	#, tmp3723
	leal	506948616(%rsi,%r13), %esi	#, tmp3720
	movl	%eax, %r12d	# a, tmp3734
	addl	%esi, %edi	# tmp3720, tmp3721
	movl	%ecx, %esi	# d, tmp3722
	rorl	$6, %esi	#, tmp3722
	xorl	%esi, %r10d	# tmp3722, tmp3724
	movl	%ecx, %esi	# d, tmp3725
	roll	$7, %esi	#, tmp3725
	xorl	%esi, %r10d	# tmp3725, tmp3726
	leal	(%rdi,%r10), %esi	#, t1
	movl	%r11d, %r10d	# h, tmp3727
	movl	%r11d, %edi	# h, tmp3728
	rorl	$2, %r10d	#, tmp3727
	rorl	$13, %edi	#, tmp3728
	xorl	%r10d, %edi	# tmp3727, tmp3729
	movl	%r11d, %r10d	# h, tmp3730
	addl	%esi, %r14d	# t1, c
	roll	$10, %r10d	#, tmp3730
	movl	%r14d, %r9d	# c, tmp3755
	xorl	%r10d, %edi	# tmp3730, tmp3731
	movl	%eax, %r10d	# a, tmp3732
	orl	%r11d, %r10d	# h, tmp3732
	andl	%r11d, %r12d	# h, tmp3734
	rorl	$11, %r9d	#, tmp3755
	andl	%r8d, %r10d	# b, tmp3733
	orl	%r12d, %r10d	# tmp3734, tmp3735
	movl	%r15d, %r12d	# w3, tmp3738
	addl	%edi, %r10d	# tmp3731, t2
	movl	%r15d, %edi	# w3, tmp3737
	roll	$14, %r12d	#, tmp3738
	rorl	$7, %edi	#, tmp3737
	addl	%esi, %r10d	# t1, g
	movl	-104(%rsp), %esi	# %sfp, w11
	xorl	%edi, %r12d	# tmp3737, tmp3739
	movl	%r15d, %edi	# w3, tmp3740
	shrl	$3, %edi	#, tmp3740
	xorl	%edi, %r12d	# tmp3740, tmp3741
	addl	-88(%rsp), %r12d	# %sfp, tmp3742
	leal	(%r12,%rsi), %edi	#, _2427
	movl	%ebp, %esi	# w0, tmp3743
	movl	%ebp, %r12d	# w0, tmp3744
	roll	$15, %esi	#, tmp3743
	roll	$13, %r12d	#, tmp3744
	xorl	%esi, %r12d	# tmp3743, tmp3745
	movl	%ebp, %esi	# w0, tmp3746
	shrl	$10, %esi	#, tmp3746
	xorl	%esi, %r12d	# tmp3746, tmp3747
	movl	%ebx, %esi	# e, tmp3748
	addl	%edi, %r12d	# _2427, w2
	xorl	%ecx, %esi	# d, tmp3748
	movl	%r11d, %edi	# h, tmp3766
	andl	%r14d, %esi	# c, tmp3749
	leal	659060556(%rdx,%r12), %edx	#, tmp3752
	xorl	%ebx, %esi	# e, tmp3750
	addl	%edx, %esi	# tmp3752, tmp3753
	movl	%r14d, %edx	# c, tmp3754
	rorl	$6, %edx	#, tmp3754
	xorl	%edx, %r9d	# tmp3754, tmp3756
	movl	%r14d, %edx	# c, tmp3757
	roll	$7, %edx	#, tmp3757
	xorl	%r9d, %edx	# tmp3756, tmp3758
	addl	%esi, %edx	# tmp3753, t1
	movl	%r10d, %esi	# g, tmp3759
	rorl	$2, %esi	#, tmp3759
	addl	%edx, %r8d	# t1, b
	movl	%esi, %r9d	# tmp3759, tmp3759
	movl	%r10d, %esi	# g, tmp3760
	rorl	$13, %esi	#, tmp3760
	xorl	%r9d, %esi	# tmp3759, tmp3761
	movl	%r10d, %r9d	# g, tmp3762
	roll	$10, %r9d	#, tmp3762
	andl	%r10d, %edi	# g, tmp3766
	xorl	%r9d, %esi	# tmp3762, tmp3763
	movl	%r11d, %r9d	# h, tmp3764
	orl	%r10d, %r9d	# g, tmp3764
	andl	%eax, %r9d	# a, tmp3765
	orl	%edi, %r9d	# tmp3766, tmp3767
	movl	-84(%rsp), %edi	# %sfp, w4
	addl	%esi, %r9d	# tmp3763, t2
	addl	%edx, %r9d	# t1, f
	movl	%r13d, %edx	# w1, tmp3775
	movl	%edi, %esi	# w4, tmp3769
	movl	%edi, %ebp	# w4, tmp3770
	roll	$15, %edx	#, tmp3775
	rorl	$7, %esi	#, tmp3769
	roll	$14, %ebp	#, tmp3770
	xorl	%esi, %ebp	# tmp3769, tmp3771
	movl	%edi, %esi	# w4, tmp3772
	movl	-96(%rsp), %edi	# %sfp, w12
	shrl	$3, %esi	#, tmp3772
	xorl	%esi, %ebp	# tmp3772, tmp3773
	addl	%r15d, %ebp	# w3, tmp3774
	leal	0(%rbp,%rdi), %esi	#, _2422
	movl	%r13d, %ebp	# w1, tmp3776
	movl	%r8d, %edi	# b, tmp3787
	roll	$13, %ebp	#, tmp3776
	rorl	$11, %edi	#, tmp3787
	xorl	%edx, %ebp	# tmp3775, tmp3777
	movl	%r13d, %edx	# w1, tmp3778
	shrl	$10, %edx	#, tmp3778
	xorl	%edx, %ebp	# tmp3778, tmp3779
	movl	%ecx, %edx	# d, tmp3780
	addl	%esi, %ebp	# _2422, w3
	xorl	%r14d, %edx	# c, tmp3780
	andl	%r8d, %edx	# b, tmp3781
	leal	883997877(%rbx,%rbp), %esi	#, tmp3784
	movl	%r10d, %ebx	# g, tmp3798
	xorl	%ecx, %edx	# d, tmp3782
	addl	%edx, %esi	# tmp3782, tmp3785
	movl	%r8d, %edx	# b, tmp3786
	rorl	$6, %edx	#, tmp3786
	xorl	%edx, %edi	# tmp3786, tmp3788
	movl	%r8d, %edx	# b, tmp3789
	roll	$7, %edx	#, tmp3789
	xorl	%edi, %edx	# tmp3788, tmp3790
	movl	%r9d, %edi	# f, tmp3791
	addl	%esi, %edx	# tmp3785, t1
	movl	%r9d, %esi	# f, tmp3792
	rorl	$2, %edi	#, tmp3791
	addl	%edx, %eax	# t1, a
	rorl	$13, %esi	#, tmp3792
	andl	%r9d, %ebx	# f, tmp3798
	xorl	%edi, %esi	# tmp3791, tmp3793
	movl	%r9d, %edi	# f, tmp3794
	roll	$10, %edi	#, tmp3794
	xorl	%edi, %esi	# tmp3794, tmp3795
	movl	%r10d, %edi	# g, tmp3796
	orl	%r9d, %edi	# f, tmp3796
	andl	%r11d, %edi	# h, tmp3797
	orl	%ebx, %edi	# tmp3798, tmp3799
	addl	%esi, %edi	# tmp3795, t2
	movl	-80(%rsp), %esi	# %sfp, w5
	addl	%edx, %edi	# t1, e
	movl	%esi, %r15d	# w5, tmp3802
	movl	%esi, %edx	# w5, tmp3801
	roll	$14, %r15d	#, tmp3802
	rorl	$7, %edx	#, tmp3801
	movl	%r15d, %ebx	# tmp3802, tmp3802
	movl	%r9d, %r15d	# f, tmp3830
	xorl	%edx, %ebx	# tmp3801, tmp3803
	movl	%esi, %edx	# w5, tmp3804
	movl	-100(%rsp), %esi	# %sfp, w13
	shrl	$3, %edx	#, tmp3804
	xorl	%edx, %ebx	# tmp3804, tmp3805
	addl	-84(%rsp), %ebx	# %sfp, tmp3806
	leal	(%rbx,%rsi), %edx	#, _2417
	movl	%r12d, %esi	# w2, tmp3807
	movl	%r12d, %ebx	# w2, tmp3808
	roll	$15, %esi	#, tmp3807
	roll	$13, %ebx	#, tmp3808
	xorl	%esi, %ebx	# tmp3807, tmp3809
	movl	%r12d, %esi	# w2, tmp3810
	shrl	$10, %esi	#, tmp3810
	xorl	%esi, %ebx	# tmp3810, tmp3811
	movl	%r14d, %esi	# c, tmp3812
	xorl	%r8d, %esi	# b, tmp3812
	addl	%edx, %ebx	# _2417, w4
	movl	%esi, %edx	# tmp3812, tmp3812
	leal	958139571(%rcx,%rbx), %ecx	#, tmp3816
	movl	%eax, %esi	# a, tmp3818
	andl	%eax, %edx	# a, tmp3813
	rorl	$6, %esi	#, tmp3818
	xorl	%r14d, %edx	# c, tmp3814
	addl	%edx, %ecx	# tmp3814, tmp3817
	movl	%esi, %edx	# tmp3818, tmp3818
	movl	%eax, %esi	# a, tmp3819
	rorl	$11, %esi	#, tmp3819
	xorl	%edx, %esi	# tmp3818, tmp3820
	movl	%eax, %edx	# a, tmp3821
	roll	$7, %edx	#, tmp3821
	xorl	%esi, %edx	# tmp3820, tmp3822
	movl	%edi, %esi	# e, tmp3823
	addl	%ecx, %edx	# tmp3817, t1
	movl	%edi, %ecx	# e, tmp3824
	addl	%edx, %r11d	# t1, h
	rorl	$2, %esi	#, tmp3823
	rorl	$13, %ecx	#, tmp3824
	xorl	%esi, %ecx	# tmp3823, tmp3825
	movl	%edi, %esi	# e, tmp3826
	andl	%edi, %r15d	# e, tmp3830
	roll	$10, %esi	#, tmp3826
	xorl	%esi, %ecx	# tmp3826, tmp3827
	movl	%r9d, %esi	# f, tmp3828
	orl	%edi, %esi	# e, tmp3828
	andl	%r10d, %esi	# g, tmp3829
	orl	%r15d, %esi	# tmp3830, tmp3831
	movl	-76(%rsp), %r15d	# %sfp, w6
	addl	%ecx, %esi	# tmp3827, t2
	addl	%edx, %esi	# t1, d
	movl	%r15d, %ecx	# w6, tmp3833
	movl	%r15d, %edx	# w6, tmp3834
	rorl	$7, %ecx	#, tmp3833
	roll	$14, %edx	#, tmp3834
	xorl	%ecx, %edx	# tmp3833, tmp3835
	movl	%r15d, %ecx	# w6, tmp3836
	movl	%ebp, %r15d	# w3, tmp3839
	shrl	$3, %ecx	#, tmp3836
	roll	$15, %r15d	#, tmp3839
	xorl	%ecx, %edx	# tmp3836, tmp3837
	movl	%ebp, %ecx	# w3, tmp3840
	addl	-80(%rsp), %edx	# %sfp, tmp3838
	addl	-92(%rsp), %edx	# %sfp, _2412
	roll	$13, %ecx	#, tmp3840
	xorl	%r15d, %ecx	# tmp3839, tmp3841
	movl	%ebp, %r15d	# w3, tmp3842
	shrl	$10, %r15d	#, tmp3842
	xorl	%r15d, %ecx	# tmp3842, tmp3843
	movl	%r11d, %r15d	# h, tmp3851
	addl	%edx, %ecx	# _2412, w5
	movl	%r8d, %edx	# b, tmp3844
	rorl	$11, %r15d	#, tmp3851
	xorl	%eax, %edx	# a, tmp3844
	leal	1322822218(%r14,%rcx), %r14d	#, tmp3848
	movl	%ecx, -88(%rsp)	# w5, %sfp
	andl	%r11d, %edx	# h, tmp3845
	movl	%r15d, %ecx	# tmp3851, tmp3851
	movl	%esi, %r15d	# d, tmp3858
	xorl	%r8d, %edx	# b, tmp3846
	addl	%edx, %r14d	# tmp3846, tmp3849
	movl	%r11d, %edx	# h, tmp3850
	rorl	$6, %edx	#, tmp3850
	xorl	%edx, %ecx	# tmp3850, tmp3852
	movl	%r11d, %edx	# h, tmp3853
	roll	$7, %edx	#, tmp3853
	roll	$10, %r15d	#, tmp3858
	xorl	%ecx, %edx	# tmp3852, tmp3854
	addl	%r14d, %edx	# tmp3849, t1
	movl	%esi, %r14d	# d, tmp3855
	rorl	$2, %r14d	#, tmp3855
	addl	%edx, %r10d	# t1, g
	movl	%r14d, %ecx	# tmp3855, tmp3855
	movl	%esi, %r14d	# d, tmp3856
	rorl	$13, %r14d	#, tmp3856
	xorl	%ecx, %r14d	# tmp3855, tmp3857
	xorl	%r15d, %r14d	# tmp3858, tmp3859
	movl	%edi, %r15d	# e, tmp3860
	orl	%esi, %r15d	# d, tmp3860
	movl	%r15d, %ecx	# tmp3860, tmp3860
	movl	%edi, %r15d	# e, tmp3862
	andl	%esi, %r15d	# d, tmp3862
	andl	%r9d, %ecx	# f, tmp3861
	orl	%r15d, %ecx	# tmp3862, tmp3863
	movl	-72(%rsp), %r15d	# %sfp, w7
	addl	%r14d, %ecx	# tmp3859, t2
	addl	%edx, %ecx	# t1, c
	movl	%r15d, %r14d	# w7, tmp3865
	movl	%r15d, %edx	# w7, tmp3866
	rorl	$7, %r14d	#, tmp3865
	roll	$14, %edx	#, tmp3866
	xorl	%r14d, %edx	# tmp3865, tmp3867
	movl	%r15d, %r14d	# w7, tmp3868
	movl	%ebx, %r15d	# w4, tmp3871
	shrl	$3, %r14d	#, tmp3868
	roll	$15, %r15d	#, tmp3871
	xorl	%r14d, %edx	# tmp3868, tmp3869
	movl	%ebx, %r14d	# w4, tmp3872
	addl	-76(%rsp), %edx	# %sfp, tmp3870
	roll	$13, %r14d	#, tmp3872
	addl	-64(%rsp), %edx	# %sfp, _2407
	xorl	%r15d, %r14d	# tmp3871, tmp3873
	movl	%ebx, %r15d	# w4, tmp3874
	shrl	$10, %r15d	#, tmp3874
	xorl	%r15d, %r14d	# tmp3874, tmp3875
	movl	%eax, %r15d	# a, tmp3876
	xorl	%r11d, %r15d	# h, tmp3876
	addl	%r14d, %edx	# tmp3875, w6
	movl	%r15d, %r14d	# tmp3876, tmp3876
	leal	1537002063(%r8,%rdx), %r8d	#, tmp3880
	movl	%edx, -84(%rsp)	# w6, %sfp
	andl	%r10d, %r14d	# g, tmp3877
	movl	%r10d, %edx	# g, tmp3883
	movl	%ecx, %r15d	# c, tmp3888
	xorl	%eax, %r14d	# a, tmp3878
	addl	%r8d, %r14d	# tmp3880, tmp3881
	movl	%r10d, %r8d	# g, tmp3882
	rorl	$6, %r8d	#, tmp3882
	rorl	$11, %edx	#, tmp3883
	rorl	$13, %r15d	#, tmp3888
	xorl	%r8d, %edx	# tmp3882, tmp3884
	movl	%r10d, %r8d	# g, tmp3885
	roll	$7, %r8d	#, tmp3885
	xorl	%edx, %r8d	# tmp3884, tmp3886
	movl	%ecx, %edx	# c, tmp3887
	addl	%r14d, %r8d	# tmp3881, t1
	rorl	$2, %edx	#, tmp3887
	movl	%r15d, %r14d	# tmp3888, tmp3888
	xorl	%edx, %r14d	# tmp3887, tmp3889
	movl	%ecx, %edx	# c, tmp3890
	movl	%esi, %r15d	# d, tmp3894
	roll	$10, %edx	#, tmp3890
	andl	%ecx, %r15d	# c, tmp3894
	addl	%r8d, %r9d	# t1, f
	xorl	%edx, %r14d	# tmp3890, tmp3891
	movl	%esi, %edx	# d, tmp3892
	orl	%ecx, %edx	# c, tmp3892
	andl	%edi, %edx	# e, tmp3893
	orl	%r15d, %edx	# tmp3894, tmp3895
	movl	-68(%rsp), %r15d	# %sfp, w8
	addl	%r14d, %edx	# tmp3891, t2
	addl	%r8d, %edx	# t1, b
	movl	%r15d, %r8d	# w8, tmp3897
	rorl	$7, %r8d	#, tmp3897
	movl	%r8d, %r14d	# tmp3897, tmp3897
	movl	%r15d, %r8d	# w8, tmp3898
	shrl	$3, %r15d	#, tmp3900
	roll	$14, %r8d	#, tmp3898
	xorl	%r14d, %r8d	# tmp3897, tmp3899
	movl	-88(%rsp), %r14d	# %sfp, w5
	xorl	%r15d, %r8d	# tmp3900, tmp3901
	addl	-72(%rsp), %r8d	# %sfp, tmp3902
	addl	-60(%rsp), %r8d	# %sfp, _2402
	movl	%r14d, %r15d	# w5, tmp3903
	roll	$13, %r14d	#, tmp3904
	roll	$15, %r15d	#, tmp3903
	xorl	%r15d, %r14d	# tmp3903, tmp3905
	movl	-88(%rsp), %r15d	# %sfp, tmp3906
	shrl	$10, %r15d	#, tmp3906
	xorl	%r15d, %r14d	# tmp3906, tmp3907
	addl	%r14d, %r8d	# tmp3907, w7
	movl	%r8d, %r15d	# w7, w7
	movl	%r11d, %r8d	# h, tmp3908
	xorl	%r10d, %r8d	# g, tmp3908
	leal	1747873779(%rax,%r15), %r14d	#, tmp3912
	movl	%r15d, -80(%rsp)	# w7, %sfp
	andl	%r9d, %r8d	# f, tmp3909
	movl	%ecx, %r15d	# c, tmp3926
	xorl	%r11d, %r8d	# h, tmp3910
	andl	%edx, %r15d	# b, tmp3926
	addl	%r8d, %r14d	# tmp3910, tmp3913
	movl	%r9d, %r8d	# f, tmp3914
	rorl	$6, %r8d	#, tmp3914
	movl	%r8d, %eax	# tmp3914, tmp3914
	movl	%r9d, %r8d	# f, tmp3915
	rorl	$11, %r8d	#, tmp3915
	xorl	%eax, %r8d	# tmp3914, tmp3916
	movl	%r9d, %eax	# f, tmp3917
	roll	$7, %eax	#, tmp3917
	xorl	%eax, %r8d	# tmp3917, tmp3918
	movl	%edx, %eax	# b, tmp3920
	addl	%r14d, %r8d	# tmp3913, t1
	movl	%edx, %r14d	# b, tmp3919
	rorl	$13, %eax	#, tmp3920
	rorl	$2, %r14d	#, tmp3919
	addl	%r8d, %edi	# t1, e
	xorl	%r14d, %eax	# tmp3919, tmp3921
	movl	%edx, %r14d	# b, tmp3922
	roll	$10, %r14d	#, tmp3922
	xorl	%r14d, %eax	# tmp3922, tmp3923
	movl	%ecx, %r14d	# c, tmp3924
	orl	%edx, %r14d	# b, tmp3924
	andl	%esi, %r14d	# d, tmp3925
	orl	%r15d, %r14d	# tmp3926, tmp3927
	movl	-112(%rsp), %r15d	# %sfp, w9
	addl	%eax, %r14d	# tmp3923, t2
	addl	%r14d, %r8d	# t2, a
	movl	%r15d, %r14d	# w9, tmp3929
	roll	$14, %r15d	#, tmp3930
	rorl	$7, %r14d	#, tmp3929
	movl	%r15d, %eax	# tmp3930, tmp3930
	xorl	%r14d, %eax	# tmp3929, tmp3931
	movl	-112(%rsp), %r14d	# %sfp, tmp3932
	shrl	$3, %r14d	#, tmp3932
	xorl	%r14d, %eax	# tmp3932, tmp3933
	addl	-68(%rsp), %eax	# %sfp, tmp3934
	addl	%eax, %r13d	# tmp3934, _2397
	movl	-84(%rsp), %eax	# %sfp, w6
	movl	%eax, %r15d	# w6, tmp3935
	roll	$15, %r15d	#, tmp3935
	movl	%r15d, %r14d	# tmp3935, tmp3935
	movl	%eax, %r15d	# w6, tmp3936
	roll	$13, %r15d	#, tmp3936
	movl	%r15d, %eax	# tmp3936, tmp3936
	movl	-84(%rsp), %r15d	# %sfp, tmp3938
	xorl	%r14d, %eax	# tmp3935, tmp3937
	movl	%edx, %r14d	# b, tmp3958
	shrl	$10, %r15d	#, tmp3938
	xorl	%r15d, %eax	# tmp3938, tmp3939
	andl	%r8d, %r14d	# a, tmp3958
	leal	(%rax,%r13), %r15d	#, w8
	movl	%r10d, %r13d	# g, tmp3940
	xorl	%r9d, %r13d	# f, tmp3940
	movl	%r13d, %eax	# tmp3940, tmp3940
	leal	1955562222(%r11,%r15), %r13d	#, tmp3944
	movl	%edi, %r11d	# e, tmp3946
	andl	%edi, %eax	# e, tmp3941
	rorl	$6, %r11d	#, tmp3946
	xorl	%r10d, %eax	# g, tmp3942
	addl	%eax, %r13d	# tmp3942, tmp3945
	movl	%r11d, %eax	# tmp3946, tmp3946
	movl	%edi, %r11d	# e, tmp3947
	rorl	$11, %r11d	#, tmp3947
	xorl	%eax, %r11d	# tmp3946, tmp3948
	movl	%edi, %eax	# e, tmp3949
	roll	$7, %eax	#, tmp3949
	xorl	%r11d, %eax	# tmp3948, tmp3950
	movl	%r8d, %r11d	# a, tmp3951
	addl	%r13d, %eax	# tmp3945, t1
	movl	%r8d, %r13d	# a, tmp3952
	rorl	$2, %r11d	#, tmp3951
	rorl	$13, %r13d	#, tmp3952
	addl	%eax, %esi	# t1, d
	xorl	%r11d, %r13d	# tmp3951, tmp3953
	movl	%r8d, %r11d	# a, tmp3954
	roll	$10, %r11d	#, tmp3954
	xorl	%r11d, %r13d	# tmp3954, tmp3955
	movl	%edx, %r11d	# b, tmp3956
	orl	%r8d, %r11d	# a, tmp3956
	andl	%ecx, %r11d	# c, tmp3957
	orl	%r14d, %r11d	# tmp3958, tmp3959
	movl	-108(%rsp), %r14d	# %sfp, w10
	addl	%r13d, %r11d	# tmp3955, t2
	addl	%eax, %r11d	# t1, h
	movl	%r14d, %r13d	# w10, tmp3961
	roll	$14, %r14d	#, tmp3962
	rorl	$7, %r13d	#, tmp3961
	movl	%r14d, %eax	# tmp3962, tmp3962
	movl	-80(%rsp), %r14d	# %sfp, w7
	xorl	%r13d, %eax	# tmp3961, tmp3963
	movl	-108(%rsp), %r13d	# %sfp, tmp3964
	shrl	$3, %r13d	#, tmp3964
	xorl	%r13d, %eax	# tmp3964, tmp3965
	addl	-112(%rsp), %eax	# %sfp, tmp3966
	addl	%r12d, %eax	# w2, _2392
	movl	%r14d, %r12d	# w7, tmp3967
	roll	$15, %r12d	#, tmp3967
	movl	%r12d, %r13d	# tmp3967, tmp3967
	movl	%r14d, %r12d	# w7, tmp3968
	roll	$13, %r12d	#, tmp3968
	xorl	%r13d, %r12d	# tmp3967, tmp3969
	movl	%r14d, %r13d	# w7, tmp3970
	movl	%r8d, %r14d	# a, tmp3990
	shrl	$10, %r13d	#, tmp3970
	andl	%r11d, %r14d	# h, tmp3990
	xorl	%r13d, %r12d	# tmp3970, tmp3971
	movl	%r9d, %r13d	# f, tmp3972
	xorl	%edi, %r13d	# e, tmp3972
	addl	%eax, %r12d	# _2392, w9
	movl	%r13d, %eax	# tmp3972, tmp3972
	leal	2024104815(%r10,%r12), %r13d	#, tmp3976
	movl	%esi, %r10d	# d, tmp3978
	andl	%esi, %eax	# d, tmp3973
	rorl	$6, %r10d	#, tmp3978
	xorl	%r9d, %eax	# f, tmp3974
	addl	%eax, %r13d	# tmp3974, tmp3977
	movl	%r10d, %eax	# tmp3978, tmp3978
	movl	%esi, %r10d	# d, tmp3979
	rorl	$11, %r10d	#, tmp3979
	xorl	%eax, %r10d	# tmp3978, tmp3980
	movl	%esi, %eax	# d, tmp3981
	roll	$7, %eax	#, tmp3981
	xorl	%r10d, %eax	# tmp3980, tmp3982
	movl	%r11d, %r10d	# h, tmp3983
	addl	%r13d, %eax	# tmp3977, t1
	movl	%r11d, %r13d	# h, tmp3984
	rorl	$2, %r10d	#, tmp3983
	rorl	$13, %r13d	#, tmp3984
	addl	%eax, %ecx	# t1, c
	xorl	%r10d, %r13d	# tmp3983, tmp3985
	movl	%r11d, %r10d	# h, tmp3986
	roll	$10, %r10d	#, tmp3986
	xorl	%r10d, %r13d	# tmp3986, tmp3987
	movl	%r8d, %r10d	# a, tmp3988
	orl	%r11d, %r10d	# h, tmp3988
	andl	%edx, %r10d	# b, tmp3989
	orl	%r14d, %r10d	# tmp3990, tmp3991
	addl	%r13d, %r10d	# tmp3987, t2
	addl	%eax, %r10d	# t1, g
	movl	-104(%rsp), %eax	# %sfp, w11
	movl	%eax, %r14d	# w11, tmp3993
	rorl	$7, %r14d	#, tmp3993
	movl	%r14d, %r13d	# tmp3993, tmp3993
	movl	%eax, %r14d	# w11, tmp3994
	roll	$14, %r14d	#, tmp3994
	movl	%r14d, %eax	# tmp3994, tmp3994
	movl	%r11d, %r14d	# h, tmp4022
	xorl	%r13d, %eax	# tmp3993, tmp3995
	movl	-104(%rsp), %r13d	# %sfp, tmp3996
	shrl	$3, %r13d	#, tmp3996
	xorl	%r13d, %eax	# tmp3996, tmp3997
	addl	-108(%rsp), %eax	# %sfp, tmp3998
	addl	%ebp, %eax	# w3, _2387
	movl	%r15d, %ebp	# w8, tmp3999
	andl	%r10d, %r14d	# g, tmp4022
	roll	$15, %ebp	#, tmp3999
	movl	%ebp, %r13d	# tmp3999, tmp3999
	movl	%r15d, %ebp	# w8, tmp4000
	roll	$13, %ebp	#, tmp4000
	xorl	%r13d, %ebp	# tmp3999, tmp4001
	movl	%r15d, %r13d	# w8, tmp4002
	shrl	$10, %r13d	#, tmp4002
	xorl	%r13d, %ebp	# tmp4002, tmp4003
	movl	%edi, %r13d	# e, tmp4004
	addl	%eax, %ebp	# _2387, w10
	xorl	%esi, %r13d	# d, tmp4004
	andl	%ecx, %r13d	# c, tmp4005
	leal	-2067236844(%r9,%rbp), %r9d	#, tmp4008
	xorl	%edi, %r13d	# e, tmp4006
	addl	%r9d, %r13d	# tmp4008, tmp4009
	movl	%ecx, %r9d	# c, tmp4010
	rorl	$6, %r9d	#, tmp4010
	movl	%r9d, %eax	# tmp4010, tmp4010
	movl	%ecx, %r9d	# c, tmp4011
	rorl	$11, %r9d	#, tmp4011
	xorl	%eax, %r9d	# tmp4010, tmp4012
	movl	%ecx, %eax	# c, tmp4013
	roll	$7, %eax	#, tmp4013
	xorl	%eax, %r9d	# tmp4013, tmp4014
	movl	%r10d, %eax	# g, tmp4016
	addl	%r13d, %r9d	# tmp4009, t1
	movl	%r10d, %r13d	# g, tmp4015
	rorl	$13, %eax	#, tmp4016
	rorl	$2, %r13d	#, tmp4015
	addl	%r9d, %edx	# t1, b
	xorl	%r13d, %eax	# tmp4015, tmp4017
	movl	%r10d, %r13d	# g, tmp4018
	roll	$10, %r13d	#, tmp4018
	xorl	%r13d, %eax	# tmp4018, tmp4019
	movl	%r11d, %r13d	# h, tmp4020
	orl	%r10d, %r13d	# g, tmp4020
	andl	%r8d, %r13d	# a, tmp4021
	orl	%r14d, %r13d	# tmp4022, tmp4023
	addl	%eax, %r13d	# tmp4019, t2
	movl	-96(%rsp), %eax	# %sfp, w12
	addl	%r13d, %r9d	# t2, f
	movl	%eax, %r14d	# w12, tmp4025
	rorl	$7, %r14d	#, tmp4025
	movl	%r14d, %r13d	# tmp4025, tmp4025
	movl	%eax, %r14d	# w12, tmp4026
	roll	$14, %r14d	#, tmp4026
	movl	%r14d, %eax	# tmp4026, tmp4026
	movl	-96(%rsp), %r14d	# %sfp, w12
	xorl	%r13d, %eax	# tmp4025, tmp4027
	movl	%r14d, %r13d	# w12, tmp4028
	shrl	$3, %r13d	#, tmp4028
	xorl	%r13d, %eax	# tmp4028, tmp4029
	addl	-104(%rsp), %eax	# %sfp, tmp4030
	movl	%r12d, %r13d	# w9, tmp4031
	roll	$15, %r13d	#, tmp4031
	addl	%eax, %ebx	# tmp4030, _2382
	movl	%r12d, %eax	# w9, tmp4032
	shrl	$10, %r12d	#, tmp4034
	roll	$13, %eax	#, tmp4032
	xorl	%r13d, %eax	# tmp4031, tmp4033
	movl	%edx, %r13d	# b, tmp4045
	xorl	%eax, %r12d	# tmp4033, tmp4035
	roll	$7, %r13d	#, tmp4045
	addl	%ebx, %r12d	# _2382, w11
	movl	%esi, %ebx	# d, tmp4036
	xorl	%ecx, %ebx	# c, tmp4036
	leal	-1933114872(%rdi,%r12), %edi	#, tmp4040
	andl	%edx, %ebx	# b, tmp4037
	xorl	%esi, %ebx	# d, tmp4038
	addl	%edi, %ebx	# tmp4040, tmp4041
	movl	%edx, %edi	# b, tmp4042
	rorl	$6, %edi	#, tmp4042
	movl	%edi, %eax	# tmp4042, tmp4042
	movl	%edx, %edi	# b, tmp4043
	rorl	$11, %edi	#, tmp4043
	xorl	%eax, %edi	# tmp4042, tmp4044
	xorl	%r13d, %edi	# tmp4045, tmp4046
	movl	%r9d, %r13d	# f, tmp4048
	addl	%ebx, %edi	# tmp4041, t1
	rorl	$13, %r13d	#, tmp4048
	movl	%r9d, %ebx	# f, tmp4047
	rorl	$2, %ebx	#, tmp4047
	movl	%r13d, %eax	# tmp4048, tmp4048
	movl	%r10d, %r13d	# g, tmp4054
	xorl	%ebx, %eax	# tmp4047, tmp4049
	movl	%r9d, %ebx	# f, tmp4050
	andl	%r9d, %r13d	# f, tmp4054
	roll	$10, %ebx	#, tmp4050
	addl	%edi, %r8d	# t1, a
	xorl	%ebx, %eax	# tmp4050, tmp4051
	movl	%r10d, %ebx	# g, tmp4052
	orl	%r9d, %ebx	# f, tmp4052
	andl	%r11d, %ebx	# h, tmp4053
	orl	%r13d, %ebx	# tmp4054, tmp4055
	addl	%eax, %ebx	# tmp4051, t2
	movl	-100(%rsp), %eax	# %sfp, w13
	addl	%ebx, %edi	# t2, e
	movl	%eax, %r13d	# w13, tmp4057
	rorl	$7, %r13d	#, tmp4057
	movl	%r13d, %ebx	# tmp4057, tmp4057
	movl	%eax, %r13d	# w13, tmp4058
	roll	$14, %r13d	#, tmp4058
	movl	%r13d, %eax	# tmp4058, tmp4058
	movl	-100(%rsp), %r13d	# %sfp, tmp4060
	xorl	%ebx, %eax	# tmp4057, tmp4059
	movl	%ebp, %ebx	# w10, tmp4063
	roll	$15, %ebx	#, tmp4063
	shrl	$3, %r13d	#, tmp4060
	xorl	%r13d, %eax	# tmp4060, tmp4061
	movl	%ebx, %r13d	# tmp4063, tmp4063
	movl	%ebp, %ebx	# w10, tmp4064
	addl	%r14d, %eax	# w12, tmp4062
	addl	-88(%rsp), %eax	# %sfp, _2377
	roll	$13, %ebx	#, tmp4064
	xorl	%r13d, %ebx	# tmp4063, tmp4065
	shrl	$10, %ebp	#, tmp4066
	movl	-92(%rsp), %r13d	# %sfp, w14
	xorl	%ebx, %ebp	# tmp4065, tmp4067
	movl	%r9d, %r14d	# f, tmp4086
	andl	%edi, %r14d	# e, tmp4086
	addl	%eax, %ebp	# _2377, w12
	movl	%ecx, %eax	# c, tmp4068
	xorl	%edx, %eax	# b, tmp4068
	leal	-1866530822(%rsi,%rbp), %ebx	#, tmp4072
	movl	%r8d, %esi	# a, tmp4074
	andl	%r8d, %eax	# a, tmp4069
	rorl	$6, %esi	#, tmp4074
	xorl	%ecx, %eax	# c, tmp4070
	addl	%eax, %ebx	# tmp4070, tmp4073
	movl	%r8d, %eax	# a, tmp4075
	rorl	$11, %eax	#, tmp4075
	xorl	%esi, %eax	# tmp4074, tmp4076
	movl	%r8d, %esi	# a, tmp4077
	roll	$7, %esi	#, tmp4077
	xorl	%esi, %eax	# tmp4077, tmp4078
	movl	%edi, %esi	# e, tmp4079
	rorl	$2, %esi	#, tmp4079
	addl	%ebx, %eax	# tmp4073, t1
	movl	%esi, %ebx	# tmp4079, tmp4079
	movl	%edi, %esi	# e, tmp4080
	addl	%eax, %r11d	# t1, h
	rorl	$13, %esi	#, tmp4080
	xorl	%ebx, %esi	# tmp4079, tmp4081
	movl	%edi, %ebx	# e, tmp4082
	roll	$10, %ebx	#, tmp4082
	xorl	%ebx, %esi	# tmp4082, tmp4083
	movl	%r9d, %ebx	# f, tmp4084
	orl	%edi, %ebx	# e, tmp4084
	andl	%r10d, %ebx	# g, tmp4085
	orl	%r14d, %ebx	# tmp4086, tmp4087
	movl	%r13d, %r14d	# w14, tmp4089
	addl	%ebx, %esi	# tmp4087, t2
	rorl	$7, %r14d	#, tmp4089
	movl	%r12d, %ebx	# w11, tmp4095
	addl	%eax, %esi	# t1, d
	movl	%r14d, %eax	# tmp4089, tmp4089
	movl	%r13d, %r14d	# w14, tmp4090
	roll	$14, %r14d	#, tmp4090
	shrl	$3, %r13d	#, tmp4092
	roll	$15, %ebx	#, tmp4095
	xorl	%eax, %r14d	# tmp4089, tmp4091
	movl	%ebx, %eax	# tmp4095, tmp4095
	movl	%r12d, %ebx	# w11, tmp4096
	xorl	%r13d, %r14d	# tmp4092, tmp4093
	addl	-100(%rsp), %r14d	# %sfp, tmp4094
	roll	$13, %ebx	#, tmp4096
	addl	-84(%rsp), %r14d	# %sfp, _2372
	xorl	%ebx, %eax	# tmp4096, tmp4097
	shrl	$10, %r12d	#, tmp4098
	movl	%edx, %ebx	# b, tmp4100
	xorl	%eax, %r12d	# tmp4097, tmp4099
	movl	%edi, %r13d	# e, tmp4118
	xorl	%r8d, %ebx	# a, tmp4100
	movl	%ebx, %eax	# tmp4100, tmp4100
	addl	%r14d, %r12d	# _2372, w13
	andl	%r11d, %eax	# h, tmp4101
	leal	-1538233109(%rcx,%r12), %ebx	#, tmp4104
	xorl	%edx, %eax	# b, tmp4102
	movl	%r11d, %ecx	# h, tmp4106
	rorl	$6, %ecx	#, tmp4106
	addl	%eax, %ebx	# tmp4102, tmp4105
	movl	%r11d, %eax	# h, tmp4107
	rorl	$11, %eax	#, tmp4107
	xorl	%ecx, %eax	# tmp4106, tmp4108
	movl	%r11d, %ecx	# h, tmp4109
	roll	$7, %ecx	#, tmp4109
	xorl	%ecx, %eax	# tmp4109, tmp4110
	movl	%esi, %ecx	# d, tmp4112
	addl	%ebx, %eax	# tmp4105, t1
	movl	%esi, %ebx	# d, tmp4111
	rorl	$13, %ecx	#, tmp4112
	rorl	$2, %ebx	#, tmp4111
	addl	%eax, %r10d	# t1, g
	xorl	%ebx, %ecx	# tmp4111, tmp4113
	movl	%esi, %ebx	# d, tmp4114
	roll	$10, %ebx	#, tmp4114
	xorl	%ebx, %ecx	# tmp4114, tmp4115
	movl	%edi, %ebx	# e, tmp4116
	orl	%esi, %ebx	# d, tmp4116
	andl	%esi, %r13d	# d, tmp4118
	andl	%r9d, %ebx	# f, tmp4117
	orl	%r13d, %ebx	# tmp4118, tmp4119
	movl	-64(%rsp), %r13d	# %sfp, w15
	addl	%ebx, %ecx	# tmp4119, t2
	addl	%eax, %ecx	# t1, c
	movl	%r13d, %r14d	# w15, tmp4121
	rorl	$7, %r14d	#, tmp4121
	movl	%r14d, %ebx	# tmp4121, tmp4121
	movl	%r13d, %r14d	# w15, tmp4122
	roll	$14, %r14d	#, tmp4122
	movl	%r14d, %eax	# tmp4122, tmp4122
	movl	%r13d, %r14d	# w15, tmp4124
	movl	-92(%rsp), %r13d	# %sfp, w14
	xorl	%ebx, %eax	# tmp4121, tmp4123
	shrl	$3, %r14d	#, tmp4124
	xorl	%r14d, %eax	# tmp4124, tmp4125
	leal	-1090935817(%r13,%rax), %r14d	#, tmp4127
	movl	%ebp, %r13d	# w12, tmp4129
	addl	-80(%rsp), %r14d	# %sfp, tmp4128
	roll	$15, %r13d	#, tmp4129
	movl	%r13d, %ebx	# tmp4129, tmp4129
	movl	%ebp, %r13d	# w12, tmp4130
	shrl	$10, %ebp	#, tmp4132
	roll	$13, %r13d	#, tmp4130
	movl	%r13d, %eax	# tmp4130, tmp4130
	movl	%ecx, %r13d	# c, tmp4146
	xorl	%ebx, %eax	# tmp4129, tmp4131
	rorl	$13, %r13d	#, tmp4146
	xorl	%ebp, %eax	# tmp4132, tmp4133
	movl	%r10d, %ebp	# g, tmp4143
	addl	%r14d, %eax	# tmp4128, tmp4134
	roll	$7, %ebp	#, tmp4143
	addl	%edx, %eax	# b, tmp4135
	movl	%r8d, %edx	# a, tmp4136
	xorl	%r11d, %edx	# h, tmp4136
	movl	%edx, %r14d	# tmp4136, tmp4136
	andl	%r10d, %r14d	# g, tmp4137
	movl	%r14d, %edx	# tmp4137, tmp4137
	xorl	%r8d, %edx	# a, tmp4137
	leal	(%rax,%rdx), %r14d	#, tmp4139
	movl	%r10d, %edx	# g, tmp4140
	rorl	$6, %edx	#, tmp4140
	movl	%edx, %eax	# tmp4140, tmp4140
	movl	%r10d, %edx	# g, tmp4141
	rorl	$11, %edx	#, tmp4141
	xorl	%eax, %edx	# tmp4140, tmp4142
	movl	%r13d, %eax	# tmp4146, tmp4146
	movl	%esi, %r13d	# d, tmp4152
	xorl	%ebp, %edx	# tmp4143, tmp4144
	addl	%r14d, %edx	# tmp4139, t1
	movl	-64(%rsp), %r14d	# %sfp, w15
	leal	(%r9,%rdx), %ebp	#, f
	movl	%ecx, %r9d	# c, tmp4145
	rorl	$2, %r9d	#, tmp4145
	xorl	%r9d, %eax	# tmp4145, tmp4147
	movl	%ecx, %r9d	# c, tmp4148
	roll	$10, %r9d	#, tmp4148
	xorl	%r9d, %eax	# tmp4148, tmp4149
	movl	%esi, %r9d	# d, tmp4150
	andl	%ecx, %r13d	# c, tmp4152
	orl	%ecx, %r9d	# c, tmp4150
	andl	%edi, %r9d	# e, tmp4151
	orl	%r13d, %r9d	# tmp4152, tmp4153
	movl	-60(%rsp), %r13d	# %sfp, w0
	addl	%eax, %r9d	# tmp4149, t2
	addl	%r9d, %edx	# t2, b
	movl	%r13d, %r9d	# w0, tmp4155
	rorl	$7, %r9d	#, tmp4155
	movl	%r9d, %eax	# tmp4155, tmp4155
	movl	%r13d, %r9d	# w0, tmp4156
	roll	$14, %r9d	#, tmp4156
	xorl	%r9d, %eax	# tmp4156, tmp4157
	movl	%r13d, %r9d	# w0, w0
	shrl	$3, %r9d	#, w0
	xorl	%r9d, %eax	# tmp4158, tmp4159
	movl	%r12d, %r9d	# w13, tmp4164
	leal	-965641998(%r14,%rax), %r13d	#, tmp4161
	roll	$13, %r9d	#, tmp4164
	movl	%r9d, %eax	# tmp4164, tmp4164
	addl	%r15d, %r13d	# w8, tmp4162
	movl	%r12d, %r15d	# w13, tmp4163
	shrl	$10, %r12d	#, tmp4166
	roll	$15, %r15d	#, tmp4163
	xorl	%r15d, %eax	# tmp4163, tmp4165
	xorl	%r12d, %eax	# tmp4166, tmp4167
	movl	%edx, %r12d	# b, tmp4180
	addl	%r13d, %eax	# tmp4162, tmp4168
	movl	%r11d, %r13d	# h, tmp4170
	rorl	$13, %r12d	#, tmp4180
	xorl	%r10d, %r13d	# g, tmp4170
	addl	%r8d, %eax	# a, tmp4169
	andl	%ebp, %r13d	# f, tmp4171
	movl	%r13d, %r9d	# tmp4171, tmp4171
	xorl	%r11d, %r9d	# h, tmp4171
	leal	(%rax,%r9), %r13d	#, tmp4173
	movl	%ebp, %r9d	# f, tmp4174
	rorl	$6, %r9d	#, tmp4174
	movl	%r9d, %eax	# tmp4174, tmp4174
	movl	%ebp, %r9d	# f, tmp4175
	rorl	$11, %r9d	#, tmp4175
	movl	%r9d, %r8d	# tmp4175, tmp4175
	movl	%ebp, %r9d	# f, tmp4177
	xorl	%eax, %r8d	# tmp4174, tmp4176
	roll	$7, %r9d	#, tmp4177
	movl	%r12d, %eax	# tmp4180, tmp4180
	xorl	%r9d, %r8d	# tmp4177, tmp4178
	movl	%edx, %r9d	# b, tmp4179
	movl	%ecx, %r12d	# c, tmp4186
	rorl	$2, %r9d	#, tmp4179
	addl	%r13d, %r8d	# tmp4173, t1
	xorl	%r9d, %eax	# tmp4179, tmp4181
	movl	%edx, %r9d	# b, tmp4182
	roll	$10, %r9d	#, tmp4182
	andl	%edx, %r12d	# b, tmp4186
	xorl	%r9d, %eax	# tmp4182, tmp4183
	movl	%ecx, %r9d	# c, tmp4184
	orl	%edx, %r9d	# b, tmp4184
	addl	-36(%rsp), %edx	# %sfp, tmp4191
	andl	%esi, %r9d	# d, tmp4185
	orl	%r12d, %r9d	# tmp4186, tmp4187
	addl	%eax, %r9d	# tmp4183, t2
	addl	-40(%rsp), %r9d	# %sfp, tmp4189
	movq	-8(%rsp), %rax	# %sfp, s
	addl	%r8d, %r9d	# t1, tmp4190
	movl	%r9d, (%rax)	# tmp4190, *s_2(D)
	movl	%edx, 4(%rax)	# tmp4191, MEM[(uint32_t *)s_2(D) + 4B]
	movl	-20(%rsp), %r14d	# %sfp, f
	addl	-24(%rsp), %edi	# %sfp, tmp4194
	addl	-32(%rsp), %ecx	# %sfp, tmp4192
	addl	-28(%rsp), %esi	# %sfp, tmp4193
	addl	-16(%rsp), %r10d	# %sfp, tmp4197
	addl	-12(%rsp), %r11d	# %sfp, tmp4198
	leal	(%r14,%rbp), %r9d	#, tmp4196
	addl	%edi, %r8d	# tmp4194, tmp4195
	movl	%ecx, 8(%rax)	# tmp4192, MEM[(uint32_t *)s_2(D) + 8B]
	movl	%esi, 12(%rax)	# tmp4193, MEM[(uint32_t *)s_2(D) + 12B]
	movl	%r8d, 16(%rax)	# tmp4195, MEM[(uint32_t *)s_2(D) + 16B]
	movl	%r9d, 20(%rax)	# tmp4196, MEM[(uint32_t *)s_2(D) + 20B]
	movl	%r10d, 24(%rax)	# tmp4197, MEM[(uint32_t *)s_2(D) + 24B]
	movl	%r11d, 28(%rax)	# tmp4198, MEM[(uint32_t *)s_2(D) + 28B]
	popq	%rbx	#
	.cfi_def_cfa_offset 48
	popq	%rbp	#
	.cfi_def_cfa_offset 40
	popq	%r12	#
	.cfi_def_cfa_offset 32
	popq	%r13	#
	.cfi_def_cfa_offset 24
	popq	%r14	#
	.cfi_def_cfa_offset 16
	popq	%r15	#
	.cfi_def_cfa_offset 8
	ret
	.cfi_endproc
.LFE165:
	.size	secp256k1_sha256_transform, .-secp256k1_sha256_transform
	.section	.rodata.str1.8,"aMS",@progbits,1
	.align 8
.LC0:
	.string	"[libsecp256k1] internal consistency check failed: %s\n"
	.text
	.p2align 4,,15
	.type	default_error_callback_fn, @function
default_error_callback_fn:
.LFB193:
	.cfi_startproc
	subq	$8, %rsp	#,
	.cfi_def_cfa_offset 16
	movq	%rdi, %rdx	# str, str
	movq	stderr(%rip), %rdi	# stderr,
	movl	$.LC0, %esi	#,
	xorl	%eax, %eax	#
	call	fprintf	#
	call	abort	#
	.cfi_endproc
.LFE193:
	.size	default_error_callback_fn, .-default_error_callback_fn
	.section	.rodata.str1.8
	.align 8
.LC1:
	.string	"[libsecp256k1] illegal argument: %s\n"
	.text
	.p2align 4,,15
	.type	default_illegal_callback_fn, @function
default_illegal_callback_fn:
.LFB192:
	.cfi_startproc
	subq	$8, %rsp	#,
	.cfi_def_cfa_offset 16
	movq	%rdi, %rdx	# str, str
	movq	stderr(%rip), %rdi	# stderr,
	movl	$.LC1, %esi	#,
	xorl	%eax, %eax	#
	call	fprintf	#
	call	abort	#
	.cfi_endproc
.LFE192:
	.size	default_illegal_callback_fn, .-default_illegal_callback_fn
	.p2align 4,,15
	.type	secp256k1_sha256_write, @function
secp256k1_sha256_write:
.LFB166:
	.cfi_startproc
	pushq	%r15	#
	.cfi_def_cfa_offset 16
	.cfi_offset 15, -16
	pushq	%r14	#
	.cfi_def_cfa_offset 24
	.cfi_offset 14, -24
	movq	%rsi, %r14	# data, data
	pushq	%r13	#
	.cfi_def_cfa_offset 32
	.cfi_offset 13, -32
	pushq	%r12	#
	.cfi_def_cfa_offset 40
	.cfi_offset 12, -40
	pushq	%rbp	#
	.cfi_def_cfa_offset 48
	.cfi_offset 6, -48
	pushq	%rbx	#
	.cfi_def_cfa_offset 56
	.cfi_offset 3, -56
	movq	%rdi, %rbp	# hash, hash
	subq	$8, %rsp	#,
	.cfi_def_cfa_offset 64
	movq	96(%rdi), %rcx	# hash_7(D)->bytes, _8
	movq	%rcx, %rax	# _8, bufsize
	addq	%rdx, %rcx	# len, tmp101
	andl	$63, %eax	#, bufsize
	movq	%rcx, 96(%rdi)	# tmp101, hash_7(D)->bytes
	leaq	(%rax,%rdx), %r13	#, _29
	cmpq	$63, %r13	#, _29
	jbe	.L110	#,
	leaq	32(%rdi), %rbx	#, pretmp_2
	movq	%r13, %r15	# _29, ivtmp.422
	movl	$64, %r12d	#, tmp102
	.p2align 4,,10
	.p2align 3
.L117:
	movq	%r12, %rdx	# tmp102, _15
	subq	%rax, %rdx	# bufsize, _15
	addq	%rbx, %rax	# pretmp_2, tmp103
	cmpl	$8, %edx	#, _15
	jnb	.L111	#,
	testb	$4, %dl	#, _15
	jne	.L125	#,
	testl	%edx, %edx	# _15
	je	.L112	#,
	movzbl	(%r14), %ecx	#* data, tmp116
	testb	$2, %dl	#, _15
	movb	%cl, (%rax)	# tmp116,
	jne	.L126	#,
.L112:
	movq	%rbx, %rsi	# pretmp_2,
	movq	%rbp, %rdi	# hash,
	subq	$64, %r15	#, ivtmp.422
	addq	%rdx, %r14	# _15, data
	call	secp256k1_sha256_transform	#
	xorl	%eax, %eax	# bufsize
	cmpq	$63, %r15	#, ivtmp.422
	ja	.L117	#,
	movq	%r13, %rdx	# _29, _29
	andl	$63, %edx	#, _29
.L110:
	testq	%rdx, %rdx	# len
	jne	.L127	#,
	addq	$8, %rsp	#,
	.cfi_remember_state
	.cfi_def_cfa_offset 56
	popq	%rbx	#
	.cfi_def_cfa_offset 48
	popq	%rbp	#
	.cfi_def_cfa_offset 40
	popq	%r12	#
	.cfi_def_cfa_offset 32
	popq	%r13	#
	.cfi_def_cfa_offset 24
	popq	%r14	#
	.cfi_def_cfa_offset 16
	popq	%r15	#
	.cfi_def_cfa_offset 8
	ret
	.p2align 4,,10
	.p2align 3
.L111:
	.cfi_restore_state
	movq	(%r14), %rcx	#* data, tmp125
	movq	%r14, %r8	# data, data
	movq	%rcx, (%rax)	# tmp125,
	movl	%edx, %ecx	# _15, _15
	movq	-8(%r14,%rcx), %rsi	#, tmp132
	movq	%rsi, -8(%rax,%rcx)	# tmp132,
	leaq	8(%rax), %rcx	#, tmp133
	andq	$-8, %rcx	#, tmp133
	subq	%rcx, %rax	# tmp133, tmp105
	subq	%rax, %r8	# tmp105, data
	addl	%edx, %eax	# _15, _15
	andl	$-8, %eax	#, _15
	cmpl	$8, %eax	#, _15
	jb	.L112	#,
	andl	$-8, %eax	#, tmp135
	xorl	%esi, %esi	# tmp134
.L115:
	movl	%esi, %edi	# tmp134, tmp136
	addl	$8, %esi	#, tmp134
	movq	(%r8,%rdi), %r9	#, tmp137
	cmpl	%eax, %esi	# tmp135, tmp134
	movq	%r9, (%rcx,%rdi)	# tmp137,
	jb	.L115	#,
	jmp	.L112	#
	.p2align 4,,10
	.p2align 3
.L125:
	movl	(%r14), %ecx	#* data, tmp108
	movl	%ecx, (%rax)	# tmp108,
	movl	%edx, %ecx	# _15, _15
	movl	-4(%r14,%rcx), %esi	#, tmp115
	movl	%esi, -4(%rax,%rcx)	# tmp115,
	jmp	.L112	#
	.p2align 4,,10
	.p2align 3
.L127:
	addq	$8, %rsp	#,
	.cfi_remember_state
	.cfi_def_cfa_offset 56
	leaq	32(%rbp,%rax), %rdi	#, tmp140
	movq	%r14, %rsi	# data,
	popq	%rbx	#
	.cfi_def_cfa_offset 48
	popq	%rbp	#
	.cfi_def_cfa_offset 40
	popq	%r12	#
	.cfi_def_cfa_offset 32
	popq	%r13	#
	.cfi_def_cfa_offset 24
	popq	%r14	#
	.cfi_def_cfa_offset 16
	popq	%r15	#
	.cfi_def_cfa_offset 8
	jmp	memcpy	#
	.p2align 4,,10
	.p2align 3
.L126:
	.cfi_restore_state
	movl	%edx, %ecx	# _15, _15
	movzwl	-2(%r14,%rcx), %esi	#, tmp124
	movw	%si, -2(%rax,%rcx)	# tmp124,
	jmp	.L112	#
	.cfi_endproc
.LFE166:
	.size	secp256k1_sha256_write, .-secp256k1_sha256_write
	.p2align 4,,15
	.type	secp256k1_sha256_finalize, @function
secp256k1_sha256_finalize:
.LFB167:
	.cfi_startproc
	pushq	%rbp	#
	.cfi_def_cfa_offset 16
	.cfi_offset 6, -16
	pushq	%rbx	#
	.cfi_def_cfa_offset 24
	.cfi_offset 3, -24
	movq	%rsi, %rbp	# out32, out32
	movq	%rdi, %rbx	# hash, hash
	subq	$56, %rsp	#,
	.cfi_def_cfa_offset 80
	movq	96(%rdi), %rcx	# hash_4(D)->bytes, _5
	movq	%rcx, %rdx	# _5, tmp137
	movq	%rcx, %rax	# _5, tmp138
	shrq	$29, %rdx	#, tmp137
	shrq	$37, %rax	#, tmp138
	movl	%edx, %esi	# tmp137, tmp140
	andl	$65280, %eax	#, tmp139
	sall	$8, %edx	#, tmp145
	sall	$24, %esi	#, tmp140
	andl	$16711680, %edx	#, tmp146
	orl	%esi, %eax	# tmp140, tmp141
	movq	%rcx, %rsi	# _5, tmp142
	shrq	$53, %rsi	#, tmp142
	movzbl	%sil, %esi	# tmp142, tmp143
	orl	%esi, %eax	# tmp143, tmp144
	movl	%ecx, %esi	# _5, tmp150
	orl	%edx, %eax	# tmp146, tmp147
	leaq	0(,%rcx,8), %rdx	#, _26
	sall	$27, %esi	#, tmp150
	movl	%eax, (%rsp)	# tmp147, sizedesc
	movl	%ecx, %eax	# _5, tmp148
	sall	$11, %eax	#, tmp148
	andl	$16711680, %eax	#, tmp149
	orl	%esi, %eax	# tmp150, tmp151
	movq	%rdx, %rsi	# _26, tmp152
	shrl	$24, %edx	#, tmp156
	shrq	$8, %rsi	#, tmp152
	andl	$65280, %esi	#, tmp153
	orl	%esi, %eax	# tmp153, tmp154
	movl	$pad.6185, %esi	#,
	orl	%edx, %eax	# tmp156, tmp157
	movl	$119, %edx	#, tmp159
	subq	%rcx, %rdx	# _5, tmp158
	movl	%eax, 4(%rsp)	# tmp157, sizedesc
	andl	$63, %edx	#, tmp160
	addq	$1, %rdx	#, tmp161
	call	secp256k1_sha256_write	#
	movq	%rsp, %rsi	#,
	movq	%rbx, %rdi	# hash,
	movl	$8, %edx	#,
	call	secp256k1_sha256_write	#
	movl	(%rbx), %eax	# MEM[(unsigned int *)hash_4(D)], MEM[(unsigned int *)hash_4(D)]
	movl	$0, (%rbx)	#, hash_4(D)->s
	bswap	%eax	# _86
	movl	%eax, 16(%rsp)	# _86, out
	movl	4(%rbx), %eax	# MEM[(unsigned int *)hash_4(D) + 4B], MEM[(unsigned int *)hash_4(D) + 4B]
	movl	$0, 4(%rbx)	#, MEM[(struct secp256k1_sha256_t *)hash_4(D) + 4B]
	bswap	%eax	# _71
	movl	%eax, 20(%rsp)	# _71, out
	movl	8(%rbx), %eax	# MEM[(unsigned int *)hash_4(D) + 8B], MEM[(unsigned int *)hash_4(D) + 8B]
	movl	$0, 8(%rbx)	#, MEM[(struct secp256k1_sha256_t *)hash_4(D) + 8B]
	bswap	%eax	# _82
	movl	%eax, 24(%rsp)	# _82, out
	movl	12(%rbx), %eax	# MEM[(unsigned int *)hash_4(D) + 12B], MEM[(unsigned int *)hash_4(D) + 12B]
	movl	$0, 12(%rbx)	#, MEM[(struct secp256k1_sha256_t *)hash_4(D) + 12B]
	bswap	%eax	# _98
	movl	%eax, 28(%rsp)	# _98, out
	movl	16(%rbx), %eax	# MEM[(unsigned int *)hash_4(D) + 16B], MEM[(unsigned int *)hash_4(D) + 16B]
	movl	$0, 16(%rbx)	#, MEM[(struct secp256k1_sha256_t *)hash_4(D) + 16B]
	bswap	%eax	# _110
	movl	%eax, 32(%rsp)	# _110, out
	movl	20(%rbx), %eax	# MEM[(unsigned int *)hash_4(D) + 20B], MEM[(unsigned int *)hash_4(D) + 20B]
	movl	$0, 20(%rbx)	#, MEM[(struct secp256k1_sha256_t *)hash_4(D) + 20B]
	bswap	%eax	# _122
	movl	%eax, 36(%rsp)	# _122, out
	movl	24(%rbx), %eax	# MEM[(unsigned int *)hash_4(D) + 24B], MEM[(unsigned int *)hash_4(D) + 24B]
	movl	$0, 24(%rbx)	#, MEM[(struct secp256k1_sha256_t *)hash_4(D) + 24B]
	bswap	%eax	# _134
	movl	%eax, 40(%rsp)	# _134, out
	movl	28(%rbx), %eax	# MEM[(unsigned int *)hash_4(D) + 28B], MEM[(unsigned int *)hash_4(D) + 28B]
	movl	$0, 28(%rbx)	#, MEM[(struct secp256k1_sha256_t *)hash_4(D) + 28B]
	bswap	%eax	# _50
	movl	%eax, 44(%rsp)	# _50, out
	movq	16(%rsp), %rax	# MEM[(char * {ref-all})&out], MEM[(char * {ref-all})&out]
	movq	%rax, 0(%rbp)	# MEM[(char * {ref-all})&out], MEM[(char * {ref-all})out32_54(D)]
	movq	24(%rsp), %rax	# MEM[(char * {ref-all})&out], MEM[(char * {ref-all})&out]
	movq	%rax, 8(%rbp)	# MEM[(char * {ref-all})&out], MEM[(char * {ref-all})out32_54(D)]
	movq	32(%rsp), %rax	# MEM[(char * {ref-all})&out], MEM[(char * {ref-all})&out]
	movq	%rax, 16(%rbp)	# MEM[(char * {ref-all})&out], MEM[(char * {ref-all})out32_54(D)]
	movq	40(%rsp), %rax	# MEM[(char * {ref-all})&out], MEM[(char * {ref-all})&out]
	movq	%rax, 24(%rbp)	# MEM[(char * {ref-all})&out], MEM[(char * {ref-all})out32_54(D)]
	addq	$56, %rsp	#,
	.cfi_def_cfa_offset 24
	popq	%rbx	#
	.cfi_def_cfa_offset 16
	popq	%rbp	#
	.cfi_def_cfa_offset 8
	ret
	.cfi_endproc
.LFE167:
	.size	secp256k1_sha256_finalize, .-secp256k1_sha256_finalize
	.p2align 4,,15
	.type	secp256k1_der_parse_integer, @function
secp256k1_der_parse_integer:
.LFB181:
	.cfi_startproc
	pushq	%r12	#
	.cfi_def_cfa_offset 16
	.cfi_offset 12, -16
	pushq	%rbp	#
	.cfi_def_cfa_offset 24
	.cfi_offset 6, -24
	pushq	%rbx	#
	.cfi_def_cfa_offset 32
	.cfi_offset 3, -32
	subq	$48, %rsp	#,
	.cfi_def_cfa_offset 80
	movq	(%rsi), %r8	# *sig_11(D), _12
	movl	$0, 12(%rsp)	#, overflow
	movq	$0, 16(%rsp)	#, ra
	movq	$0, 24(%rsp)	#, ra
	movq	$0, 32(%rsp)	#, ra
	cmpq	%rdx, %r8	# sigend, _12
	movq	$0, 40(%rsp)	#, ra
	je	.L133	#,
	cmpb	$2, (%r8)	#, *_12
	je	.L184	#,
.L133:
	xorl	%eax, %eax	# <retval>
.L130:
	addq	$48, %rsp	#,
	.cfi_remember_state
	.cfi_def_cfa_offset 32
	popq	%rbx	#
	.cfi_def_cfa_offset 24
	popq	%rbp	#
	.cfi_def_cfa_offset 16
	popq	%r12	#
	.cfi_def_cfa_offset 8
	ret
	.p2align 4,,10
	.p2align 3
.L184:
	.cfi_restore_state
	leaq	1(%r8), %rax	#, _17
	cmpq	%rax, %rdx	# _17, sigend
	jbe	.L185	#,
	leaq	2(%r8), %rax	#, _57
	movq	%rax, (%rsi)	# _57, *sig_11(D)
	movzbl	1(%r8), %ecx	# MEM[(const unsigned char *)_12 + 1B],
	cmpl	$255, %ecx	#, rlen
	movl	%ecx, %r9d	#,
	je	.L133	#,
	testb	%cl, %cl	# _58
	js	.L186	#,
.L135:
	testl	%ecx, %ecx	# rlen
	jle	.L133	#,
	movslq	%ecx, %r8	# rlen, prephitmp_135
	leaq	(%rax,%r8), %r9	#, tmp211
	cmpq	%r9, %rdx	# tmp211, sigend
	jb	.L133	#,
	movzbl	(%rax), %edx	# *prephitmp_70, _24
	movq	%rsi, %rbx	# sig, sig
	movq	%rdi, %r12	# r, r
	testb	%dl, %dl	# _24
	je	.L187	#,
	cmpb	$-1, %dl	#, _24
	jne	.L141	#,
	cmpl	$1, %ecx	#, rlen
	je	.L141	#,
	cmpb	$0, 1(%rax)	#, MEM[(const unsigned char *)prephitmp_70 + 1B]
	js	.L133	#,
.L141:
	xorl	%esi, %esi	# prephitmp_39
	testb	%dl, %dl	# _24
	js	.L188	#,
.L142:
	cmpl	$32, %ecx	#, rlen
	jle	.L189	#,
.L147:
	pxor	%xmm0, %xmm0	# tmp257
	movaps	%xmm0, (%r12)	# tmp257, MEM[(long unsigned int *)r_43(D)]
	movaps	%xmm0, 16(%r12)	# tmp257, MEM[(long unsigned int *)r_43(D) + 16B]
.L154:
	addq	%r8, %rax	# prephitmp_135, tmp259
	movq	%rax, (%rbx)	# tmp259, *sig_11(D)
	movl	$1, %eax	#, <retval>
	jmp	.L130	#
	.p2align 4,,10
	.p2align 3
.L186:
	addl	$-128, %ecx	#, rlen
	je	.L133	#,
	movl	%r9d, %r10d	# _58, _58
	movq	%rdx, %r11	# sigend, _66
	andl	$127, %r10d	#, _58
	subq	%rax, %r11	# _57, _66
	movzbl	%r10b, %r9d	# _61, _61
	cmpq	%r11, %r9	# _66, _61
	jg	.L133	#,
	movzbl	2(%r8), %ecx	# MEM[(const unsigned char *)_12 + 2B],
	testb	%cl, %cl	# _67
	je	.L133	#,
	leal	-1(%r10), %r8d	#, tmp203
	cmpb	$7, %r8b	#, tmp203
	ja	.L133	#,
	leaq	(%r9,%rcx), %r8	#, tmp204
	cmpq	%r11, %r8	# _66, tmp204
	ja	.L133	#,
	leaq	-1(%r9), %r8	#, ivtmp.452
	movzbl	%r10b, %r9d	# _61, _61
	subl	$1, %r9d	#, tmp209
	movq	%r8, %r11	# ivtmp.452, _97
	subq	%r9, %r11	# tmp209, _97
	jmp	.L137	#
	.p2align 4,,10
	.p2align 3
.L138:
	movzbl	(%rax), %r9d	# MEM[base: _80, offset: 0B], MEM[base: _80, offset: 0B]
	salq	$8, %rcx	#, _69
	orq	%r9, %rcx	# MEM[base: _80, offset: 0B], ret
	movq	%rdx, %r9	# sigend, tmp206
	leaq	(%r8,%rcx), %r10	#, _76
	subq	%rax, %r9	# _57, tmp206
	subq	$1, %r8	#, ivtmp.452
	cmpq	%r9, %r10	# tmp206, _76
	ja	.L133	#,
.L137:
	addq	$1, %rax	#, _57
	cmpq	%r11, %r8	# _97, ivtmp.452
	movq	%rax, (%rsi)	# _57, *sig_11(D)
	jne	.L138	#,
	cmpq	$127, %rcx	#, ret
	ja	.L135	#,
	jmp	.L133	#
	.p2align 4,,10
	.p2align 3
.L187:
	cmpl	$1, %ecx	#, rlen
	je	.L155	#,
	cmpb	$0, 1(%rax)	#, MEM[(const unsigned char *)prephitmp_70 + 1B]
	jns	.L133	#,
.L155:
	xorl	%esi, %esi	# prephitmp_39
	jmp	.L144	#
	.p2align 4,,10
	.p2align 3
.L191:
	movzbl	(%rax), %edx	# MEM[base: _34, offset: 0B], _24
.L144:
	testb	%dl, %dl	# _24
	jne	.L190	#,
	addq	$1, %rax	#, _57
	subl	$1, %ecx	#, rlen
	movq	%rax, (%rbx)	# _57, *sig_11(D)
	jne	.L191	#,
	xorl	%ebp, %ebp	# prephitmp_103
.L143:
	testl	%esi, %esi	# prephitmp_39
	jne	.L158	#,
	leaq	16(%rsp), %rsi	#, tmp261
	movq	%rsi, %rdx	# tmp261, tmp217
	subq	%rbp, %rdx	# prephitmp_103, tmp217
	cmpl	$8, %ebp	#, prephitmp_103
	leaq	32(%rdx), %rdi	#, tmp219
	jnb	.L148	#,
	testb	$4, %bpl	#, prephitmp_103
	jne	.L192	#,
	testl	%ebp, %ebp	# prephitmp_103
	je	.L149	#,
	movzbl	(%rax), %ecx	#* _57, tmp232
	testb	$2, %bpl	#, prephitmp_103
	movb	%cl, (%rdi)	# tmp232,
	jne	.L193	#,
.L149:
	leaq	12(%rsp), %rdx	#, tmp270
	movq	%r12, %rdi	# r,
	call	secp256k1_scalar_set_b32	#
	movl	12(%rsp), %edx	# overflow,
	movq	(%rbx), %rax	# *sig_11(D), _57
	movq	%rbp, %r8	# prephitmp_103, prephitmp_135
	testl	%edx, %edx	#
	je	.L154	#,
	jmp	.L147	#
	.p2align 4,,10
	.p2align 3
.L188:
	movl	$1, 12(%rsp)	#, overflow
	movl	$1, %esi	#, prephitmp_39
	movzbl	(%rax), %edx	# *prephitmp_70, _24
	jmp	.L144	#
	.p2align 4,,10
	.p2align 3
.L158:
	movq	%rbp, %r8	# prephitmp_103, prephitmp_135
	jmp	.L147	#
.L148:
	movq	(%rax), %rdx	#* _57, tmp241
	movq	%rdx, (%rdi)	# tmp241,
	movl	%ebp, %edx	# prephitmp_103, prephitmp_103
	movq	-8(%rax,%rdx), %rcx	#, tmp248
	movq	%rcx, -8(%rdi,%rdx)	# tmp248,
	leaq	8(%rdi), %rcx	#, tmp249
	andq	$-8, %rcx	#, tmp249
	subq	%rcx, %rdi	# tmp249, tmp221
	leal	0(%rbp,%rdi), %edx	#, prephitmp_103
	subq	%rdi, %rax	# tmp221, _57
	andl	$-8, %edx	#, prephitmp_103
	cmpl	$8, %edx	#, prephitmp_103
	jb	.L149	#,
	andl	$-8, %edx	#, tmp251
	xorl	%edi, %edi	# tmp250
.L152:
	movl	%edi, %r8d	# tmp250, tmp252
	addl	$8, %edi	#, tmp250
	movq	(%rax,%r8), %r9	#, tmp253
	cmpl	%edx, %edi	# tmp251, tmp250
	movq	%r9, (%rcx,%r8)	# tmp253,
	jb	.L152	#,
	jmp	.L149	#
.L190:
	movslq	%ecx, %r8	# rlen, prephitmp_135
	jmp	.L142	#
.L185:
	movq	%rax, (%rsi)	# _17, *sig_11(D)
	jmp	.L133	#
.L192:
	movl	(%rax), %ecx	#* _57, tmp224
	movl	%ecx, (%rdi)	# tmp224,
	movl	%ebp, %ecx	# prephitmp_103, prephitmp_103
	movl	-4(%rax,%rcx), %eax	#, tmp231
	movl	%eax, -4(%rdi,%rcx)	# tmp231,
	jmp	.L149	#
.L193:
	movl	%ebp, %ecx	# prephitmp_103, prephitmp_103
	movzwl	-2(%rax,%rcx), %eax	#, tmp240
	movw	%ax, -2(%rdi,%rcx)	# tmp240,
	jmp	.L149	#
.L189:
	movq	%r8, %rbp	# prephitmp_135, prephitmp_103
	jmp	.L143	#
	.cfi_endproc
.LFE181:
	.size	secp256k1_der_parse_integer, .-secp256k1_der_parse_integer
	.section	.rodata.str1.1,"aMS",@progbits,1
.LC2:
	.string	"Out of memory"
	.text
	.p2align 4,,15
	.type	checked_malloc.part.8, @function
checked_malloc.part.8:
.LFB229:
	.cfi_startproc
	movq	8(%rdi), %rsi	# cb_1(D)->data, cb_1(D)->data
	movq	(%rdi), %rax	# cb_1(D)->fn, cb_1(D)->fn
	movl	$.LC2, %edi	#,
	jmp	*%rax	# cb_1(D)->fn
	.cfi_endproc
.LFE229:
	.size	checked_malloc.part.8, .-checked_malloc.part.8
	.p2align 4,,15
	.type	secp256k1_hmac_sha256_initialize.constprop.13, @function
secp256k1_hmac_sha256_initialize.constprop.13:
.LFB241:
	.cfi_startproc
	pushq	%rbx	#
	.cfi_def_cfa_offset 16
	.cfi_offset 3, -16
	movq	%rdi, %rbx	# hash, hash
	leaq	104(%rdi), %rdi	#, tmp126
	movl	$64, %edx	#,
	subq	$96, %rsp	#,
	.cfi_def_cfa_offset 112
	movq	(%rsi), %rax	# MEM[(void *)key_1(D)], MEM[(void *)key_1(D)]
	movdqa	.LC5(%rip), %xmm0	#, tmp118
	movq	$0, 64(%rsp)	#, MEM[(void *)&rkey + 32B]
	movq	$0, 72(%rsp)	#, MEM[(void *)&rkey + 32B]
	movq	%rax, 32(%rsp)	# MEM[(void *)key_1(D)], MEM[(void *)&rkey]
	movq	8(%rsi), %rax	# MEM[(void *)key_1(D)], MEM[(void *)key_1(D)]
	movq	$0, 80(%rsp)	#, MEM[(void *)&rkey + 32B]
	movq	$0, 88(%rsp)	#, MEM[(void *)&rkey + 32B]
	movdqa	.LC3(%rip), %xmm2	#, tmp115
	movq	%rax, 40(%rsp)	# MEM[(void *)key_1(D)], MEM[(void *)&rkey]
	movq	16(%rsi), %rax	# MEM[(void *)key_1(D)], MEM[(void *)key_1(D)]
	movdqa	32(%rsp), %xmm3	# MEM[(unsigned char[64] *)&rkey], vect__8.468
	movq	%rax, 48(%rsp)	# MEM[(void *)key_1(D)], MEM[(void *)&rkey]
	movq	24(%rsi), %rax	# MEM[(void *)key_1(D)], MEM[(void *)key_1(D)]
	leaq	32(%rsp), %rsi	#,
	pxor	%xmm0, %xmm3	# tmp118, vect__8.468
	movq	$0, 96(%rdi)	#, MEM[(struct secp256k1_sha256_t *)hash_4(D) + 104B].bytes
	movdqa	.LC4(%rip), %xmm1	#, tmp116
	movq	%rax, 56(%rsp)	# MEM[(void *)key_1(D)], MEM[(void *)&rkey]
	movaps	%xmm3, 32(%rsp)	# vect__8.468, MEM[(unsigned char[64] *)&rkey]
	movups	%xmm2, (%rdi)	# tmp115, MEM[(unsigned int *)hash_4(D) + 104B]
	movups	%xmm1, 16(%rdi)	# tmp116, MEM[(unsigned int *)hash_4(D) + 120B]
	movaps	%xmm2, 16(%rsp)	# tmp115, %sfp
	movaps	%xmm1, (%rsp)	# tmp116, %sfp
	movdqa	48(%rsp), %xmm3	# MEM[(unsigned char[64] *)&rkey + 16B], vect__8.468
	pxor	%xmm0, %xmm3	# tmp118, vect__8.468
	movaps	%xmm3, 48(%rsp)	# vect__8.468, MEM[(unsigned char[64] *)&rkey + 16B]
	movdqa	64(%rsp), %xmm3	# MEM[(unsigned char[64] *)&rkey + 32B], vect__8.468
	pxor	%xmm0, %xmm3	# tmp118, vect__8.468
	pxor	80(%rsp), %xmm0	# MEM[(unsigned char[64] *)&rkey + 48B], vect__8.468
	movaps	%xmm3, 64(%rsp)	# vect__8.468, MEM[(unsigned char[64] *)&rkey + 32B]
	movaps	%xmm0, 80(%rsp)	# vect__8.468, MEM[(unsigned char[64] *)&rkey + 48B]
	call	secp256k1_sha256_write	#
	leaq	32(%rsp), %rsi	#,
	movq	%rbx, %rdi	# hash,
	movl	$64, %edx	#,
	movdqa	(%rsp), %xmm1	# %sfp, tmp116
	movq	$0, 96(%rbx)	#, MEM[(struct secp256k1_sha256_t *)hash_4(D)].bytes
	movdqa	.LC6(%rip), %xmm0	#, tmp130
	movaps	%xmm1, 16(%rbx)	# tmp116, MEM[(unsigned int *)hash_4(D) + 16B]
	movdqa	32(%rsp), %xmm1	# MEM[(unsigned char[64] *)&rkey], vect__13.462
	pxor	%xmm0, %xmm1	# tmp130, vect__13.462
	movdqa	16(%rsp), %xmm2	# %sfp, tmp115
	movaps	%xmm1, 32(%rsp)	# vect__13.462, MEM[(unsigned char[64] *)&rkey]
	movaps	%xmm2, (%rbx)	# tmp115, MEM[(unsigned int *)hash_4(D)]
	movdqa	48(%rsp), %xmm1	# MEM[(unsigned char[64] *)&rkey + 16B], vect__13.462
	pxor	%xmm0, %xmm1	# tmp130, vect__13.462
	movaps	%xmm1, 48(%rsp)	# vect__13.462, MEM[(unsigned char[64] *)&rkey + 16B]
	movdqa	64(%rsp), %xmm1	# MEM[(unsigned char[64] *)&rkey + 32B], vect__13.462
	pxor	%xmm0, %xmm1	# tmp130, vect__13.462
	pxor	80(%rsp), %xmm0	# MEM[(unsigned char[64] *)&rkey + 48B], vect__13.462
	movaps	%xmm1, 64(%rsp)	# vect__13.462, MEM[(unsigned char[64] *)&rkey + 32B]
	movaps	%xmm0, 80(%rsp)	# vect__13.462, MEM[(unsigned char[64] *)&rkey + 48B]
	call	secp256k1_sha256_write	#
	leaq	32(%rsp), %rdi	#,
	movl	$64, %esi	#,
	call	explicit_bzero	#
	addq	$96, %rsp	#,
	.cfi_def_cfa_offset 16
	popq	%rbx	#
	.cfi_def_cfa_offset 8
	ret
	.cfi_endproc
.LFE241:
	.size	secp256k1_hmac_sha256_initialize.constprop.13, .-secp256k1_hmac_sha256_initialize.constprop.13
	.p2align 4,,15
	.type	secp256k1_gej_double_var.part.3.constprop.22, @function
secp256k1_gej_double_var.part.3.constprop.22:
.LFB232:
	.cfi_startproc
	pushq	%r14	#
	.cfi_def_cfa_offset 16
	.cfi_offset 14, -16
	pushq	%r13	#
	.cfi_def_cfa_offset 24
	.cfi_offset 13, -24
	pushq	%r12	#
	.cfi_def_cfa_offset 32
	.cfi_offset 12, -32
	leaq	40(%rsi), %r12	#, _12
	pushq	%rbp	#
	.cfi_def_cfa_offset 40
	.cfi_offset 6, -40
	pushq	%rbx	#
	.cfi_def_cfa_offset 48
	.cfi_offset 3, -48
	movq	%rsi, %rbp	# a, a
	movq	%rdi, %rbx	# r, r
	leaq	80(%rsi), %rsi	#, tmp199
	leaq	80(%rdi), %rdi	#, tmp200
	movq	%r12, %rdx	# _12,
	subq	$192, %rsp	#,
	.cfi_def_cfa_offset 240
	call	secp256k1_fe_mul_inner	#
	salq	80(%rbx)	# MEM[(struct secp256k1_fe *)r_14(D) + 80B].n
	salq	88(%rbx)	# MEM[(struct secp256k1_fe *)r_14(D) + 80B].n
	movq	%rbp, %rsi	# a,
	movq	%rsp, %rdi	#,
	salq	96(%rbx)	# MEM[(struct secp256k1_fe *)r_14(D) + 80B].n
	salq	104(%rbx)	# MEM[(struct secp256k1_fe *)r_14(D) + 80B].n
	salq	112(%rbx)	# MEM[(struct secp256k1_fe *)r_14(D) + 80B].n
	call	secp256k1_fe_sqr_inner	#
	movq	(%rsp), %rax	# t1.n, t1.n
	leaq	48(%rsp), %rdi	#, tmp299
	movq	%rsp, %rsi	#,
	leaq	(%rax,%rax,2), %rax	#, tmp205
	movq	%rax, (%rsp)	# tmp205, t1.n
	movq	8(%rsp), %rax	# t1.n, t1.n
	leaq	(%rax,%rax,2), %rax	#, tmp209
	movq	%rax, 8(%rsp)	# tmp209, t1.n
	movq	16(%rsp), %rax	# t1.n, t1.n
	leaq	(%rax,%rax,2), %rax	#, tmp213
	movq	%rax, 16(%rsp)	# tmp213, t1.n
	movq	24(%rsp), %rax	# t1.n, t1.n
	leaq	(%rax,%rax,2), %rax	#, tmp217
	movq	%rax, 24(%rsp)	# tmp217, t1.n
	movq	32(%rsp), %rax	# t1.n, t1.n
	leaq	(%rax,%rax,2), %rax	#, tmp221
	movq	%rax, 32(%rsp)	# tmp221, t1.n
	call	secp256k1_fe_sqr_inner	#
	leaq	96(%rsp), %rdi	#, tmp300
	movq	%r12, %rsi	# _12,
	call	secp256k1_fe_sqr_inner	#
	leaq	96(%rsp), %rsi	#, tmp301
	leaq	144(%rsp), %rdi	#, tmp302
	salq	96(%rsp)	# t3.n
	salq	104(%rsp)	# t3.n
	salq	112(%rsp)	# t3.n
	salq	120(%rsp)	# t3.n
	salq	128(%rsp)	# t3.n
	call	secp256k1_fe_sqr_inner	#
	leaq	96(%rsp), %rsi	#, tmp303
	movq	%rbp, %rdx	# a,
	salq	144(%rsp)	# t4.n
	salq	152(%rsp)	# t4.n
	movq	%rsi, %rdi	# tmp303, tmp304
	salq	160(%rsp)	# t4.n
	salq	168(%rsp)	# t4.n
	salq	176(%rsp)	# t4.n
	call	secp256k1_fe_mul_inner	#
	movq	96(%rsp), %rdx	# t3, t3
	movq	48(%rsp), %rbp	# t2.n, _72
	movabsq	$45035953324022230, %rax	#, tmp239
	movq	104(%rsp), %r8	# t3, t3
	movq	112(%rsp), %rdi	# t3, t3
	leaq	0(,%rdx,4), %r11	#, tmp240
	addq	%rbp, %rax	# _72, tmp238
	movq	120(%rsp), %rsi	# t3, t3
	leaq	0(,%r8,4), %r10	#, _60
	movq	128(%rsp), %rcx	# t3, t3
	leaq	(%rdx,%rdx,2), %rdx	#, tmp283
	subq	%r11, %rax	# tmp240, tmp242
	movq	56(%rsp), %r11	# t2.n, _74
	leaq	0(,%rdi,4), %r9	#, _62
	movq	%rax, (%rbx)	# tmp242, MEM[(struct secp256k1_fe *)r_14(D)].n
	movabsq	$45035996273704950, %rax	#, tmp244
	leaq	0(,%rsi,4), %r13	#, _64
	leaq	0(,%rcx,4), %r12	#, _66
	leaq	(%r8,%r8,2), %r8	#, tmp263
	leaq	(%rdi,%rdi,2), %rdi	#, tmp268
	leaq	(%r11,%rax), %r14	#, tmp243
	leaq	(%rsi,%rsi,2), %rsi	#, tmp273
	leaq	(%rcx,%rcx,2), %rcx	#, tmp278
	subq	%r10, %r14	# _60, tmp243
	movq	64(%rsp), %r10	# t2.n, _76
	movq	%r14, 8(%rbx)	# tmp245, MEM[(struct secp256k1_fe *)r_14(D)].n
	leaq	(%r10,%rax), %r14	#, tmp246
	subq	%r9, %r14	# _62, tmp246
	movq	72(%rsp), %r9	# t2.n, _78
	movq	%r14, 16(%rbx)	# tmp248, MEM[(struct secp256k1_fe *)r_14(D)].n
	addq	%r9, %rax	# _78, tmp249
	subq	%r13, %rax	# _64, tmp251
	movq	80(%rsp), %r13	# t2.n, _80
	movq	%rax, 24(%rbx)	# tmp251, MEM[(struct secp256k1_fe *)r_14(D)].n
	movabsq	$2814749767106550, %rax	#, tmp253
	addq	%r13, %rax	# _80, tmp252
	subq	%r12, %rax	# _66, tmp254
	movq	%rax, 32(%rbx)	# tmp254, MEM[(struct secp256k1_fe *)r_14(D)].n
	movabsq	$18014381329608892, %rax	#, tmp255
	subq	%rbp, %rax	# _72, tmp255
	movq	%rax, %rbp	# tmp255, _82
	movq	%rax, 48(%rsp)	# _82, t2.n
	movabsq	$18014398509481980, %rax	#, tmp256
	movq	%rax, %r14	# tmp256, _83
	leaq	0(%rbp,%rdx,2), %rdx	#, tmp285
	subq	%r11, %r14	# _74, _83
	movq	%r14, %r11	# _83, _83
	movq	%r14, 56(%rsp)	# _83, t2.n
	movq	%rdx, 96(%rsp)	# tmp285, t3.n
	movq	%rax, %r14	# tmp256, _84
	leaq	(%r11,%r8,2), %rdx	#, tmp286
	subq	%r10, %r14	# _76, _84
	subq	%r9, %rax	# _78, tmp256
	movq	%rdx, 104(%rsp)	# tmp286, t3.n
	leaq	(%r14,%rdi,2), %rdx	#, tmp287
	movq	%rax, %r9	# tmp256, _85
	movq	%rax, 72(%rsp)	# _85, t2.n
	movabsq	$1125899906842620, %rax	#, tmp259
	leaq	40(%rbx), %rdi	#, tmp292
	movq	%rdx, 112(%rsp)	# tmp287, t3.n
	leaq	(%r9,%rsi,2), %rdx	#, tmp288
	subq	%r13, %rax	# _80, _86
	movq	%rax, 80(%rsp)	# _86, t2.n
	leaq	(%rax,%rcx,2), %rax	#, tmp289
	movq	%rsp, %rsi	#,
	movq	%rdx, 120(%rsp)	# tmp288, t3.n
	leaq	96(%rsp), %rdx	#, tmp311
	movq	%r14, 64(%rsp)	# _84, t2.n
	movq	%rax, 128(%rsp)	# tmp289, t3.n
	call	secp256k1_fe_mul_inner	#
	movabsq	$27021597764222970, %rax	#, tmp293
	movabsq	$1688849860263930, %rdx	#, tmp296
	movabsq	$27021571994413338, %rcx	#, tmp298
	movq	%rax, %rdi	# tmp293, _106
	movq	%rax, %rsi	# tmp293, _108
	subq	152(%rsp), %rdi	# t4.n, _106
	subq	160(%rsp), %rsi	# t4.n, _108
	subq	168(%rsp), %rax	# t4.n, _110
	subq	176(%rsp), %rdx	# t4.n, _112
	subq	144(%rsp), %rcx	# t4.n, tmp297
	addq	%rcx, 40(%rbx)	# tmp297, MEM[(struct secp256k1_fe *)r_14(D) + 40B].n
	addq	%rdi, 48(%rbx)	# _106, MEM[(struct secp256k1_fe *)r_14(D) + 40B].n
	addq	%rsi, 56(%rbx)	# _108, MEM[(struct secp256k1_fe *)r_14(D) + 40B].n
	addq	%rax, 64(%rbx)	# _110, MEM[(struct secp256k1_fe *)r_14(D) + 40B].n
	addq	%rdx, 72(%rbx)	# _112, MEM[(struct secp256k1_fe *)r_14(D) + 40B].n
	addq	$192, %rsp	#,
	.cfi_def_cfa_offset 48
	popq	%rbx	#
	.cfi_def_cfa_offset 40
	popq	%rbp	#
	.cfi_def_cfa_offset 32
	popq	%r12	#
	.cfi_def_cfa_offset 24
	popq	%r13	#
	.cfi_def_cfa_offset 16
	popq	%r14	#
	.cfi_def_cfa_offset 8
	ret
	.cfi_endproc
.LFE232:
	.size	secp256k1_gej_double_var.part.3.constprop.22, .-secp256k1_gej_double_var.part.3.constprop.22
	.p2align 4,,15
	.type	secp256k1_gej_add_ge_var, @function
secp256k1_gej_add_ge_var:
.LFB144:
	.cfi_startproc
	movl	120(%rsi), %r8d	# a_7(D)->infinity,
	testl	%r8d, %r8d	#
	je	.L200	#,
	movl	80(%rdx), %eax	# b_9(D)->infinity, b_9(D)->infinity
	movl	%eax, 120(%rdi)	# b_9(D)->infinity, r_11(D)->infinity
	movq	(%rdx), %rax	# b_9(D)->x, b_9(D)->x
	movq	%rax, (%rdi)	# b_9(D)->x, r_11(D)->x
	movq	8(%rdx), %rax	# b_9(D)->x, b_9(D)->x
	movq	%rax, 8(%rdi)	# b_9(D)->x, r_11(D)->x
	movq	16(%rdx), %rax	# b_9(D)->x, b_9(D)->x
	movq	%rax, 16(%rdi)	# b_9(D)->x, r_11(D)->x
	movq	24(%rdx), %rax	# b_9(D)->x, b_9(D)->x
	movq	%rax, 24(%rdi)	# b_9(D)->x, r_11(D)->x
	movq	32(%rdx), %rax	# b_9(D)->x, b_9(D)->x
	movq	%rax, 32(%rdi)	# b_9(D)->x, r_11(D)->x
	movq	40(%rdx), %rax	# b_9(D)->y, b_9(D)->y
	movq	%rax, 40(%rdi)	# b_9(D)->y, r_11(D)->y
	movq	48(%rdx), %rax	# b_9(D)->y, b_9(D)->y
	movq	%rax, 48(%rdi)	# b_9(D)->y, r_11(D)->y
	movq	56(%rdx), %rax	# b_9(D)->y, b_9(D)->y
	movq	%rax, 56(%rdi)	# b_9(D)->y, r_11(D)->y
	movq	64(%rdx), %rax	# b_9(D)->y, b_9(D)->y
	movq	%rax, 64(%rdi)	# b_9(D)->y, r_11(D)->y
	movq	72(%rdx), %rax	# b_9(D)->y, b_9(D)->y
	movq	$1, 80(%rdi)	#, MEM[(struct secp256k1_fe *)r_11(D) + 80B].n
	movq	$0, 112(%rdi)	#, MEM[(struct secp256k1_fe *)r_11(D) + 80B].n
	movq	$0, 104(%rdi)	#, MEM[(struct secp256k1_fe *)r_11(D) + 80B].n
	movq	$0, 96(%rdi)	#, MEM[(struct secp256k1_fe *)r_11(D) + 80B].n
	movq	%rax, 72(%rdi)	# b_9(D)->y, r_11(D)->y
	movq	$0, 88(%rdi)	#, MEM[(struct secp256k1_fe *)r_11(D) + 80B].n
	ret
	.p2align 4,,10
	.p2align 3
.L200:
	movl	80(%rdx), %eax	# b_9(D)->infinity,
	testl	%eax, %eax	#
	je	.L202	#,
	testq	%rcx, %rcx	# rzr
	je	.L203	#,
	movq	$1, (%rcx)	#, rzr_18(D)->n
	movq	$0, 32(%rcx)	#, rzr_18(D)->n
	movq	$0, 24(%rcx)	#, rzr_18(D)->n
	movq	$0, 16(%rcx)	#, rzr_18(D)->n
	movq	$0, 8(%rcx)	#, rzr_18(D)->n
.L203:
	movq	(%rsi), %rax	# *a_7(D), *a_7(D)
	movq	%rax, (%rdi)	# *a_7(D), *r_11(D)
	movq	8(%rsi), %rax	# *a_7(D), *a_7(D)
	movq	%rax, 8(%rdi)	# *a_7(D), *r_11(D)
	movq	16(%rsi), %rax	# *a_7(D), *a_7(D)
	movq	%rax, 16(%rdi)	# *a_7(D), *r_11(D)
	movq	24(%rsi), %rax	# *a_7(D), *a_7(D)
	movq	%rax, 24(%rdi)	# *a_7(D), *r_11(D)
	movq	32(%rsi), %rax	# *a_7(D), *a_7(D)
	movq	%rax, 32(%rdi)	# *a_7(D), *r_11(D)
	movq	40(%rsi), %rax	# *a_7(D), *a_7(D)
	movq	%rax, 40(%rdi)	# *a_7(D), *r_11(D)
	movq	48(%rsi), %rax	# *a_7(D), *a_7(D)
	movq	%rax, 48(%rdi)	# *a_7(D), *r_11(D)
	movq	56(%rsi), %rax	# *a_7(D), *a_7(D)
	movq	%rax, 56(%rdi)	# *a_7(D), *r_11(D)
	movq	64(%rsi), %rax	# *a_7(D), *a_7(D)
	movq	%rax, 64(%rdi)	# *a_7(D), *r_11(D)
	movq	72(%rsi), %rax	# *a_7(D), *a_7(D)
	movq	%rax, 72(%rdi)	# *a_7(D), *r_11(D)
	movq	80(%rsi), %rax	# *a_7(D), *a_7(D)
	movq	%rax, 80(%rdi)	# *a_7(D), *r_11(D)
	movq	88(%rsi), %rax	# *a_7(D), *a_7(D)
	movq	%rax, 88(%rdi)	# *a_7(D), *r_11(D)
	movq	96(%rsi), %rax	# *a_7(D), *a_7(D)
	movq	%rax, 96(%rdi)	# *a_7(D), *r_11(D)
	movq	104(%rsi), %rax	# *a_7(D), *a_7(D)
	movq	%rax, 104(%rdi)	# *a_7(D), *r_11(D)
	movq	112(%rsi), %rax	# *a_7(D), *a_7(D)
	movq	%rax, 112(%rdi)	# *a_7(D), *r_11(D)
	movq	120(%rsi), %rax	# *a_7(D), *a_7(D)
	movq	%rax, 120(%rdi)	# *a_7(D), *r_11(D)
	ret
	.p2align 4,,10
	.p2align 3
.L202:
	pushq	%r14	#
	.cfi_def_cfa_offset 16
	.cfi_offset 14, -16
	pushq	%r13	#
	.cfi_def_cfa_offset 24
	.cfi_offset 13, -24
	leaq	80(%rsi), %r14	#, _90
	pushq	%r12	#
	.cfi_def_cfa_offset 32
	.cfi_offset 12, -32
	pushq	%rbp	#
	.cfi_def_cfa_offset 40
	.cfi_offset 6, -40
	movq	%rsi, %rbp	# a, a
	pushq	%rbx	#
	.cfi_def_cfa_offset 48
	.cfi_offset 3, -48
	movq	%r14, %rsi	# _90,
	movq	%rdi, %rbx	# r, r
	movq	%rcx, %r13	# rzr, rzr
	movq	%rdx, %r12	# b, b
	subq	$528, %rsp	#,
	.cfi_def_cfa_offset 576
	movl	$0, 120(%rdi)	#, r_11(D)->infinity
	movq	%rsp, %rdi	#,
	call	secp256k1_fe_sqr_inner	#
	movq	0(%rbp), %rax	# a_7(D)->x, a_7(D)->x
	leaq	48(%rsp), %rdi	#, tmp614
	movq	%rax, 48(%rsp)	# a_7(D)->x, u1
	movq	8(%rbp), %rax	# a_7(D)->x, a_7(D)->x
	movq	%rax, 56(%rsp)	# a_7(D)->x, u1
	movq	16(%rbp), %rax	# a_7(D)->x, a_7(D)->x
	movq	%rax, 64(%rsp)	# a_7(D)->x, u1
	movq	24(%rbp), %rax	# a_7(D)->x, a_7(D)->x
	movq	%rax, 72(%rsp)	# a_7(D)->x, u1
	movq	32(%rbp), %rax	# a_7(D)->x, a_7(D)->x
	movq	%rax, 80(%rsp)	# a_7(D)->x, u1
	call	secp256k1_fe_normalize_weak	#
	leaq	96(%rsp), %rdi	#, tmp615
	movq	%rsp, %rdx	#,
	movq	%r12, %rsi	# b,
	call	secp256k1_fe_mul_inner	#
	movq	40(%rbp), %rax	# a_7(D)->y, a_7(D)->y
	leaq	144(%rsp), %rdi	#, tmp616
	movq	%rax, 144(%rsp)	# a_7(D)->y, s1
	movq	48(%rbp), %rax	# a_7(D)->y, a_7(D)->y
	movq	%rax, 152(%rsp)	# a_7(D)->y, s1
	movq	56(%rbp), %rax	# a_7(D)->y, a_7(D)->y
	movq	%rax, 160(%rsp)	# a_7(D)->y, s1
	movq	64(%rbp), %rax	# a_7(D)->y, a_7(D)->y
	movq	%rax, 168(%rsp)	# a_7(D)->y, s1
	movq	72(%rbp), %rax	# a_7(D)->y, a_7(D)->y
	movq	%rax, 176(%rsp)	# a_7(D)->y, s1
	call	secp256k1_fe_normalize_weak	#
	leaq	40(%r12), %rsi	#, tmp374
	leaq	192(%rsp), %rdi	#, tmp617
	movq	%rsp, %rdx	#,
	call	secp256k1_fe_mul_inner	#
	leaq	192(%rsp), %rsi	#, tmp618
	movq	%r14, %rdx	# _90,
	movq	%rsi, %rdi	# tmp618, tmp619
	call	secp256k1_fe_mul_inner	#
	movabsq	$18014381329608892, %rcx	#, tmp379
	leaq	240(%rsp), %rdi	#, tmp627
	movq	%rcx, %rax	# tmp379, tmp378
	addq	96(%rsp), %rax	# u2.n, tmp378
	addq	192(%rsp), %rcx	# s2.n, tmp399
	subq	48(%rsp), %rax	# u1.n, tmp382
	subq	144(%rsp), %rcx	# s1.n, tmp403
	movq	%rax, 240(%rsp)	# tmp382, h.n
	movabsq	$18014398509481980, %rax	#, tmp384
	movq	%rcx, 288(%rsp)	# tmp403, i.n
	movq	%rax, %rdx	# tmp384, tmp383
	addq	104(%rsp), %rdx	# u2.n, tmp383
	movq	%rax, %rcx	# tmp384, tmp404
	subq	56(%rsp), %rdx	# u1.n, tmp386
	addq	200(%rsp), %rcx	# s2.n, tmp404
	subq	152(%rsp), %rcx	# s1.n, tmp407
	movq	%rdx, 248(%rsp)	# tmp386, h.n
	movq	%rax, %rdx	# tmp384, tmp387
	addq	112(%rsp), %rdx	# u2.n, tmp387
	subq	64(%rsp), %rdx	# u1.n, tmp390
	movq	%rcx, 296(%rsp)	# tmp407, i.n
	movq	%rax, %rcx	# tmp384, tmp408
	addq	208(%rsp), %rcx	# s2.n, tmp408
	subq	160(%rsp), %rcx	# s1.n, tmp411
	movq	%rdx, 256(%rsp)	# tmp390, h.n
	movq	%rax, %rdx	# tmp384, tmp391
	addq	120(%rsp), %rdx	# u2.n, tmp391
	subq	72(%rsp), %rdx	# u1.n, tmp394
	addq	216(%rsp), %rax	# s2.n, tmp412
	subq	168(%rsp), %rax	# s1.n, tmp415
	movq	%rcx, 304(%rsp)	# tmp411, i.n
	movq	%rdx, 264(%rsp)	# tmp394, h.n
	movabsq	$1125899906842620, %rdx	#, tmp396
	movq	%rdx, %rsi	# tmp396, tmp395
	addq	224(%rsp), %rdx	# s2.n, tmp416
	addq	128(%rsp), %rsi	# u2.n, tmp395
	subq	80(%rsp), %rsi	# u1.n, tmp398
	subq	176(%rsp), %rdx	# s1.n, tmp419
	movq	%rax, 312(%rsp)	# tmp415, i.n
	movq	%rsi, 272(%rsp)	# tmp398, h.n
	movq	%rdx, 320(%rsp)	# tmp419, i.n
	call	secp256k1_fe_normalizes_to_zero_var	#
	testl	%eax, %eax	# _17
	je	.L204	#,
	leaq	288(%rsp), %rdi	#, tmp628
	call	secp256k1_fe_normalizes_to_zero_var	#
	testl	%eax, %eax	# _33
	jne	.L230	#,
	testq	%r13, %r13	# rzr
	je	.L208	#,
	movq	$0, 0(%r13)	#, rzr_18(D)->n
	movq	$0, 32(%r13)	#, rzr_18(D)->n
	movq	$0, 24(%r13)	#, rzr_18(D)->n
	movq	$0, 16(%r13)	#, rzr_18(D)->n
	movq	$0, 8(%r13)	#, rzr_18(D)->n
.L208:
	movl	$1, 120(%rbx)	#, r_11(D)->infinity
.L199:
	addq	$528, %rsp	#,
	.cfi_remember_state
	.cfi_def_cfa_offset 48
	popq	%rbx	#
	.cfi_restore 3
	.cfi_def_cfa_offset 40
	popq	%rbp	#
	.cfi_restore 6
	.cfi_def_cfa_offset 32
	popq	%r12	#
	.cfi_restore 12
	.cfi_def_cfa_offset 24
	popq	%r13	#
	.cfi_restore 13
	.cfi_def_cfa_offset 16
	popq	%r14	#
	.cfi_restore 14
	.cfi_def_cfa_offset 8
	ret
	.p2align 4,,10
	.p2align 3
.L204:
	.cfi_restore_state
	leaq	288(%rsp), %rsi	#, tmp647
	leaq	336(%rsp), %rdi	#, tmp648
	call	secp256k1_fe_sqr_inner	#
	leaq	240(%rsp), %rsi	#, tmp649
	leaq	384(%rsp), %rdi	#, tmp650
	call	secp256k1_fe_sqr_inner	#
	leaq	384(%rsp), %rdx	#, tmp651
	leaq	240(%rsp), %rsi	#, tmp652
	leaq	432(%rsp), %rdi	#, tmp653
	call	secp256k1_fe_mul_inner	#
	testq	%r13, %r13	# rzr
	je	.L209	#,
	movq	240(%rsp), %rax	# h, h
	movq	%rax, 0(%r13)	# h, *rzr_18(D)
	movq	248(%rsp), %rax	# h, h
	movq	%rax, 8(%r13)	# h, *rzr_18(D)
	movq	256(%rsp), %rax	# h, h
	movq	%rax, 16(%r13)	# h, *rzr_18(D)
	movq	264(%rsp), %rax	# h, h
	movq	%rax, 24(%r13)	# h, *rzr_18(D)
	movq	272(%rsp), %rax	# h, h
	movq	%rax, 32(%r13)	# h, *rzr_18(D)
.L209:
	leaq	80(%rbx), %rdi	#, tmp539
	leaq	240(%rsp), %rdx	#, tmp654
	movq	%r14, %rsi	# _90,
	call	secp256k1_fe_mul_inner	#
	leaq	384(%rsp), %rdx	#, tmp655
	leaq	48(%rsp), %rsi	#, tmp656
	leaq	480(%rsp), %rdi	#, tmp657
	call	secp256k1_fe_mul_inner	#
	movq	480(%rsp), %r12	# t, t
	movabsq	$36028762659217784, %rax	#, tmp553
	addq	336(%rsp), %rax	# i2.n, tmp552
	subq	432(%rsp), %rax	# h3.n, tmp555
	movq	488(%rsp), %r9	# t, t
	movq	504(%rsp), %r10	# t, t
	movq	512(%rsp), %r8	# t, t
	leaq	(%r12,%r12), %rdx	#, tmp556
	movq	496(%rsp), %rsi	# t, t
	leaq	(%r9,%r9), %rdi	#, _155
	subq	%rdx, %rax	# tmp556, _128
	movabsq	$36028797018963960, %rdx	#, tmp559
	leaq	(%r10,%r10), %rcx	#, _159
	movq	%rdx, %r11	# tmp559, tmp558
	addq	344(%rsp), %r11	# i2.n, tmp558
	leaq	(%r8,%r8), %rbp	#, _161
	subq	440(%rsp), %r11	# h3.n, tmp561
	movq	%rax, (%rbx)	# _128, MEM[(struct secp256k1_fe *)r_11(D)].n
	leaq	(%rsi,%rsi), %r13	#, _157
	subq	%rdi, %r11	# _155, _130
	movq	%rdx, %rdi	# tmp559, tmp562
	addq	360(%rsp), %rdx	# i2.n, tmp566
	subq	456(%rsp), %rdx	# h3.n, tmp569
	addq	352(%rsp), %rdi	# i2.n, tmp562
	subq	448(%rsp), %rdi	# h3.n, tmp565
	movq	%r11, 8(%rbx)	# _130, MEM[(struct secp256k1_fe *)r_11(D)].n
	subq	%rcx, %rdx	# _159, _134
	movabsq	$2251799813685240, %rcx	#, tmp571
	addq	368(%rsp), %rcx	# i2.n, tmp570
	subq	464(%rsp), %rcx	# h3.n, tmp573
	subq	%r13, %rdi	# _157, _132
	movq	%rdx, 24(%rbx)	# _134, MEM[(struct secp256k1_fe *)r_11(D)].n
	movq	%rdi, 16(%rbx)	# _132, MEM[(struct secp256k1_fe *)r_11(D)].n
	subq	%rbp, %rcx	# _161, _136
	movabsq	$54043143988826676, %rbp	#, tmp575
	addq	%r12, %rbp	# t, tmp574
	movq	%rcx, 32(%rbx)	# _136, MEM[(struct secp256k1_fe *)r_11(D)].n
	subq	%rax, %rbp	# _128, tmp574
	movabsq	$54043195528445940, %rax	#, tmp579
	addq	%rax, %r9	# tmp579, tmp578
	addq	%rax, %rsi	# tmp579, tmp582
	addq	%r10, %rax	# t, tmp586
	subq	%rdx, %rax	# _134, tmp589
	subq	%rdi, %rsi	# _132, tmp585
	leaq	40(%rbx), %rdi	#, _111
	movq	%rax, 64(%rbx)	# tmp589, MEM[(struct secp256k1_fe *)r_11(D) + 40B].n
	movabsq	$3377699720527860, %rax	#, tmp591
	subq	%r11, %r9	# _130, tmp581
	addq	%rax, %r8	# tmp591, tmp590
	leaq	288(%rsp), %rdx	#, tmp661
	movq	%r9, 48(%rbx)	# tmp581, MEM[(struct secp256k1_fe *)r_11(D) + 40B].n
	subq	%rcx, %r8	# _136, tmp593
	movq	%rsi, 56(%rbx)	# tmp585, MEM[(struct secp256k1_fe *)r_11(D) + 40B].n
	movq	%rbp, 40(%rbx)	# tmp577, MEM[(struct secp256k1_fe *)r_11(D) + 40B].n
	movq	%rdi, %rsi	# _111,
	movq	%r8, 72(%rbx)	# tmp593, MEM[(struct secp256k1_fe *)r_11(D) + 40B].n
	call	secp256k1_fe_mul_inner	#
	leaq	432(%rsp), %rsi	#, tmp663
	leaq	144(%rsp), %rdx	#, tmp662
	movq	%rsi, %rdi	# tmp663, tmp664
	call	secp256k1_fe_mul_inner	#
	movabsq	$18014398509481980, %rax	#, tmp598
	movabsq	$1125899906842620, %rdx	#, tmp601
	movabsq	$18014381329608892, %rcx	#, tmp603
	movq	%rax, %rdi	# tmp598, _104
	movq	%rax, %rsi	# tmp598, _106
	subq	440(%rsp), %rdi	# h3.n, _104
	subq	448(%rsp), %rsi	# h3.n, _106
	subq	456(%rsp), %rax	# h3.n, _108
	subq	464(%rsp), %rdx	# h3.n, _110
	subq	432(%rsp), %rcx	# h3.n, tmp602
.L229:
	addq	%rcx, 40(%rbx)	# tmp602, MEM[(struct secp256k1_fe *)r_11(D) + 40B].n
	addq	%rdi, 48(%rbx)	# _104, MEM[(struct secp256k1_fe *)r_11(D) + 40B].n
	addq	%rsi, 56(%rbx)	# _106, MEM[(struct secp256k1_fe *)r_11(D) + 40B].n
	addq	%rax, 64(%rbx)	# _108, MEM[(struct secp256k1_fe *)r_11(D) + 40B].n
	addq	%rdx, 72(%rbx)	# _110, MEM[(struct secp256k1_fe *)r_11(D) + 40B].n
	jmp	.L199	#
	.p2align 4,,10
	.p2align 3
.L230:
	movl	120(%rbp), %eax	# a_7(D)->infinity, _217
	testl	%eax, %eax	# _217
	movl	%eax, 120(%rbx)	# _217, r_11(D)->infinity
	je	.L206	#,
	testq	%r13, %r13	# rzr
	je	.L199	#,
	movq	$1, 0(%r13)	#, rzr_18(D)->n
	movq	$0, 32(%r13)	#, rzr_18(D)->n
	movq	$0, 24(%r13)	#, rzr_18(D)->n
	movq	$0, 16(%r13)	#, rzr_18(D)->n
	movq	$0, 8(%r13)	#, rzr_18(D)->n
	jmp	.L199	#
	.p2align 4,,10
	.p2align 3
.L206:
	testq	%r13, %r13	# rzr
	je	.L207	#,
	movq	40(%rbp), %rax	# a_7(D)->y, a_7(D)->y
	movq	%r13, %rdi	# rzr,
	movq	%rax, 0(%r13)	# a_7(D)->y, *rzr_18(D)
	movq	48(%rbp), %rax	# a_7(D)->y, a_7(D)->y
	movq	%rax, 8(%r13)	# a_7(D)->y, *rzr_18(D)
	movq	56(%rbp), %rax	# a_7(D)->y, a_7(D)->y
	movq	%rax, 16(%r13)	# a_7(D)->y, *rzr_18(D)
	movq	64(%rbp), %rax	# a_7(D)->y, a_7(D)->y
	movq	%rax, 24(%r13)	# a_7(D)->y, *rzr_18(D)
	movq	72(%rbp), %rax	# a_7(D)->y, a_7(D)->y
	movq	%rax, 32(%r13)	# a_7(D)->y, *rzr_18(D)
	call	secp256k1_fe_normalize_weak	#
	salq	0(%r13)	# rzr_18(D)->n
	salq	8(%r13)	# rzr_18(D)->n
	salq	16(%r13)	# rzr_18(D)->n
	salq	24(%r13)	# rzr_18(D)->n
	salq	32(%r13)	# rzr_18(D)->n
.L207:
	leaq	40(%rbp), %r12	#, _228
	leaq	80(%rbx), %rdi	#, tmp427
	movq	%r14, %rsi	# _90,
	movq	%r12, %rdx	# _228,
	call	secp256k1_fe_mul_inner	#
	salq	80(%rbx)	# MEM[(struct secp256k1_fe *)r_11(D) + 80B].n
	salq	88(%rbx)	# MEM[(struct secp256k1_fe *)r_11(D) + 80B].n
	leaq	336(%rsp), %rdi	#, tmp629
	movq	%rbp, %rsi	# a,
	salq	96(%rbx)	# MEM[(struct secp256k1_fe *)r_11(D) + 80B].n
	salq	104(%rbx)	# MEM[(struct secp256k1_fe *)r_11(D) + 80B].n
	salq	112(%rbx)	# MEM[(struct secp256k1_fe *)r_11(D) + 80B].n
	call	secp256k1_fe_sqr_inner	#
	movq	336(%rsp), %rax	# t1.n, t1.n
	leaq	336(%rsp), %rsi	#, tmp630
	leaq	384(%rsp), %rdi	#, tmp631
	leaq	(%rax,%rax,2), %rax	#, tmp432
	movq	%rax, 336(%rsp)	# tmp432, t1.n
	movq	344(%rsp), %rax	# t1.n, t1.n
	leaq	(%rax,%rax,2), %rax	#, tmp436
	movq	%rax, 344(%rsp)	# tmp436, t1.n
	movq	352(%rsp), %rax	# t1.n, t1.n
	leaq	(%rax,%rax,2), %rax	#, tmp440
	movq	%rax, 352(%rsp)	# tmp440, t1.n
	movq	360(%rsp), %rax	# t1.n, t1.n
	leaq	(%rax,%rax,2), %rax	#, tmp444
	movq	%rax, 360(%rsp)	# tmp444, t1.n
	movq	368(%rsp), %rax	# t1.n, t1.n
	leaq	(%rax,%rax,2), %rax	#, tmp448
	movq	%rax, 368(%rsp)	# tmp448, t1.n
	call	secp256k1_fe_sqr_inner	#
	leaq	432(%rsp), %rdi	#, tmp632
	movq	%r12, %rsi	# _228,
	call	secp256k1_fe_sqr_inner	#
	leaq	432(%rsp), %rsi	#, tmp633
	leaq	480(%rsp), %rdi	#, tmp634
	salq	432(%rsp)	# t3.n
	salq	440(%rsp)	# t3.n
	salq	448(%rsp)	# t3.n
	salq	456(%rsp)	# t3.n
	salq	464(%rsp)	# t3.n
	call	secp256k1_fe_sqr_inner	#
	leaq	432(%rsp), %rsi	#, tmp635
	movq	%rbp, %rdx	# a,
	salq	480(%rsp)	# t4.n
	salq	488(%rsp)	# t4.n
	movq	%rsi, %rdi	# tmp635, tmp636
	salq	496(%rsp)	# t4.n
	salq	504(%rsp)	# t4.n
	salq	512(%rsp)	# t4.n
	call	secp256k1_fe_mul_inner	#
	movq	432(%rsp), %rdx	# t3, t3
	movq	384(%rsp), %rbp	# t2.n, _287
	movabsq	$45035953324022230, %rax	#, tmp466
	movq	440(%rsp), %r8	# t3, t3
	movq	448(%rsp), %rdi	# t3, t3
	leaq	0(,%rdx,4), %r11	#, tmp467
	addq	%rbp, %rax	# _287, tmp465
	movq	456(%rsp), %rsi	# t3, t3
	leaq	0(,%r8,4), %r10	#, _275
	movq	464(%rsp), %rcx	# t3, t3
	leaq	(%rdx,%rdx,2), %rdx	#, tmp510
	subq	%r11, %rax	# tmp467, tmp469
	movq	392(%rsp), %r11	# t2.n, _289
	leaq	0(,%rdi,4), %r9	#, _277
	movq	%rax, (%rbx)	# tmp469, MEM[(struct secp256k1_fe *)r_11(D)].n
	movabsq	$45035996273704950, %rax	#, tmp471
	leaq	0(,%rsi,4), %r13	#, _279
	leaq	0(,%rcx,4), %r12	#, _281
	leaq	(%r8,%r8,2), %r8	#, tmp490
	leaq	(%rdi,%rdi,2), %rdi	#, tmp495
	leaq	(%r11,%rax), %r14	#, tmp470
	leaq	(%rsi,%rsi,2), %rsi	#, tmp500
	leaq	(%rcx,%rcx,2), %rcx	#, tmp505
	subq	%r10, %r14	# _275, tmp470
	movq	400(%rsp), %r10	# t2.n, _291
	movq	%r14, 8(%rbx)	# tmp472, MEM[(struct secp256k1_fe *)r_11(D)].n
	leaq	(%r10,%rax), %r14	#, tmp473
	subq	%r9, %r14	# _277, tmp473
	movq	408(%rsp), %r9	# t2.n, _293
	movq	%r14, 16(%rbx)	# tmp475, MEM[(struct secp256k1_fe *)r_11(D)].n
	addq	%r9, %rax	# _293, tmp476
	subq	%r13, %rax	# _279, tmp478
	movq	416(%rsp), %r13	# t2.n, _295
	movq	%rax, 24(%rbx)	# tmp478, MEM[(struct secp256k1_fe *)r_11(D)].n
	movabsq	$2814749767106550, %rax	#, tmp480
	addq	%r13, %rax	# _295, tmp479
	subq	%r12, %rax	# _281, tmp481
	movq	%rax, 32(%rbx)	# tmp481, MEM[(struct secp256k1_fe *)r_11(D)].n
	movabsq	$18014381329608892, %rax	#, tmp482
	subq	%rbp, %rax	# _287, tmp482
	movq	%rax, %rbp	# tmp482, _297
	movq	%rax, 384(%rsp)	# _297, t2.n
	movabsq	$18014398509481980, %rax	#, tmp483
	movq	%rax, %r14	# tmp483, _298
	leaq	0(%rbp,%rdx,2), %rdx	#, tmp512
	subq	%r11, %r14	# _289, _298
	movq	%r14, %r11	# _298, _298
	movq	%r14, 392(%rsp)	# _298, t2.n
	movq	%rdx, 432(%rsp)	# tmp512, t3.n
	movq	%rax, %r14	# tmp483, _299
	leaq	(%r11,%r8,2), %rdx	#, tmp513
	subq	%r10, %r14	# _291, _299
	subq	%r9, %rax	# _293, tmp483
	movq	%rdx, 440(%rsp)	# tmp513, t3.n
	leaq	(%r14,%rdi,2), %rdx	#, tmp514
	movq	%rax, %r9	# tmp483, _300
	movq	%rax, 408(%rsp)	# _300, t2.n
	movabsq	$1125899906842620, %rax	#, tmp486
	leaq	40(%rbx), %rdi	#, tmp519
	movq	%rdx, 448(%rsp)	# tmp514, t3.n
	leaq	(%r9,%rsi,2), %rdx	#, tmp515
	subq	%r13, %rax	# _295, _301
	movq	%rax, 416(%rsp)	# _301, t2.n
	leaq	336(%rsp), %rsi	#, tmp644
	leaq	(%rax,%rcx,2), %rax	#, tmp516
	movq	%rdx, 456(%rsp)	# tmp515, t3.n
	leaq	432(%rsp), %rdx	#, tmp643
	movq	%r14, 400(%rsp)	# _299, t2.n
	movq	%rax, 464(%rsp)	# tmp516, t3.n
	call	secp256k1_fe_mul_inner	#
	movabsq	$27021597764222970, %rax	#, tmp520
	movabsq	$1688849860263930, %rdx	#, tmp523
	movabsq	$27021571994413338, %rcx	#, tmp525
	movq	%rax, %rdi	# tmp520, _321
	movq	%rax, %rsi	# tmp520, _323
	subq	488(%rsp), %rdi	# t4.n, _321
	subq	496(%rsp), %rsi	# t4.n, _323
	subq	504(%rsp), %rax	# t4.n, _325
	subq	512(%rsp), %rdx	# t4.n, _327
	subq	480(%rsp), %rcx	# t4.n, tmp524
	jmp	.L229	#
	.cfi_endproc
.LFE144:
	.size	secp256k1_gej_add_ge_var, .-secp256k1_gej_add_ge_var
	.section	.rodata.str1.1
.LC7:
	.string	"!secp256k1_fe_is_zero(&ge->x)"
	.text
	.p2align 4,,15
	.type	secp256k1_pubkey_load, @function
secp256k1_pubkey_load:
.LFB199:
	.cfi_startproc
	pushq	%r14	#
	.cfi_def_cfa_offset 16
	.cfi_offset 14, -16
	pushq	%r13	#
	.cfi_def_cfa_offset 24
	.cfi_offset 13, -24
	movabsq	$4503599627370495, %rcx	#, tmp133
	pushq	%r12	#
	.cfi_def_cfa_offset 32
	.cfi_offset 12, -32
	pushq	%rbp	#
	.cfi_def_cfa_offset 40
	.cfi_offset 6, -40
	pushq	%rbx	#
	.cfi_def_cfa_offset 48
	.cfi_offset 3, -48
	movq	8(%rdx), %r8	# MEM[(char * {ref-all})pubkey_2(D) + 8B], s$n$1
	movq	(%rdx), %r9	# MEM[(char * {ref-all})pubkey_2(D)], s$n$0
	movq	16(%rdx), %r12	# MEM[(char * {ref-all})pubkey_2(D) + 16B], s$n$2
	movq	24(%rdx), %r14	# MEM[(char * {ref-all})pubkey_2(D) + 24B], s$n$3
	movq	32(%rdx), %r11	# MEM[(char * {ref-all})pubkey_2(D) + 32B], s$32$n$0
	movq	40(%rdx), %r13	# MEM[(char * {ref-all})pubkey_2(D) + 40B], s$32$n$1
	movq	48(%rdx), %rbp	# MEM[(char * {ref-all})pubkey_2(D) + 48B], s$32$n$2
	movq	56(%rdx), %rbx	# MEM[(char * {ref-all})pubkey_2(D) + 56B], s$32$n$3
	movq	%r8, %rdx	# s$n$1, tmp134
	movq	%r9, %rax	# s$n$0, _47
	salq	$12, %rdx	#, tmp134
	shrq	$52, %r9	#, tmp137
	shrq	$40, %r8	#, tmp141
	andq	%rcx, %rdx	# tmp133, tmp135
	andq	%rcx, %rax	# tmp133, _47
	movl	$0, 80(%rsi)	#, ge_5(D)->infinity
	orq	%r9, %rdx	# tmp137, tmp135
	movq	%rax, (%rsi)	# _47, MEM[(struct secp256k1_fe *)ge_5(D)].n
	movq	%rdx, %r10	# tmp135, _52
	movq	%rdx, 8(%rsi)	# _52, MEM[(struct secp256k1_fe *)ge_5(D)].n
	movq	%r12, %rdx	# s$n$2, tmp138
	salq	$24, %rdx	#, tmp138
	shrq	$28, %r12	#, tmp145
	andq	%rcx, %rdx	# tmp133, tmp139
	orq	%r8, %rdx	# tmp141, tmp139
	movq	%r14, %r8	# s$n$3, tmp142
	salq	$36, %r8	#, tmp142
	movq	%rdx, %r9	# tmp139, _57
	movq	%rdx, 16(%rsi)	# _57, MEM[(struct secp256k1_fe *)ge_5(D)].n
	andq	%rcx, %r8	# tmp133, tmp143
	movq	%r14, %rdx	# s$n$3, s$n$3
	orq	%r12, %r8	# tmp145, _62
	movq	%r11, %r12	# s$32$n$0, tmp147
	shrq	$52, %r11	#, tmp151
	andq	%rcx, %r12	# tmp133, tmp147
	shrq	$16, %rdx	#, s$n$3
	movq	%r8, 24(%rsi)	# _62, MEM[(struct secp256k1_fe *)ge_5(D)].n
	movq	%r12, 40(%rsi)	# tmp147, MEM[(struct secp256k1_fe *)ge_5(D) + 40B].n
	movq	%r13, %r12	# s$32$n$1, tmp148
	shrq	$40, %r13	#, tmp156
	salq	$12, %r12	#, tmp148
	movq	%rdx, 32(%rsi)	# _63, MEM[(struct secp256k1_fe *)ge_5(D)].n
	orq	%rax, %rdx	# _47, tmp164
	andq	%rcx, %r12	# tmp133, tmp149
	orq	%r10, %rdx	# _52, tmp165
	movl	$1, %eax	#, <retval>
	orq	%r11, %r12	# tmp151, tmp152
	movq	%rbp, %r11	# s$32$n$2, tmp153
	orq	%r9, %rdx	# _57, tmp166
	salq	$24, %r11	#, tmp153
	shrq	$28, %rbp	#, tmp161
	movq	%r12, 48(%rsi)	# tmp152, MEM[(struct secp256k1_fe *)ge_5(D) + 40B].n
	andq	%rcx, %r11	# tmp133, tmp154
	orq	%r13, %r11	# tmp156, tmp157
	movq	%r11, 56(%rsi)	# tmp157, MEM[(struct secp256k1_fe *)ge_5(D) + 40B].n
	movq	%rbx, %r11	# s$32$n$3, tmp158
	shrq	$16, %rbx	#, tmp163
	salq	$36, %r11	#, tmp158
	movq	%rbx, 72(%rsi)	# tmp163, MEM[(struct secp256k1_fe *)ge_5(D) + 40B].n
	andq	%r11, %rcx	# tmp158, tmp159
	orq	%rbp, %rcx	# tmp161, tmp162
	orq	%r8, %rdx	# _62, tmp166
	movq	%rcx, 64(%rsi)	# tmp162, MEM[(struct secp256k1_fe *)ge_5(D) + 40B].n
	je	.L236	#,
	popq	%rbx	#
	.cfi_remember_state
	.cfi_def_cfa_offset 40
	popq	%rbp	#
	.cfi_def_cfa_offset 32
	popq	%r12	#
	.cfi_def_cfa_offset 24
	popq	%r13	#
	.cfi_def_cfa_offset 16
	popq	%r14	#
	.cfi_def_cfa_offset 8
	ret
	.p2align 4,,10
	.p2align 3
.L236:
	.cfi_restore_state
	movq	%rdi, %rax	# ctx, ctx
	movq	184(%rdi), %rsi	# MEM[(const struct secp256k1_callback *)ctx_11(D) + 176B].data, MEM[(const struct secp256k1_callback *)ctx_11(D) + 176B].data
	movl	$.LC7, %edi	#,
	call	*176(%rax)	# MEM[(const struct secp256k1_callback *)ctx_11(D) + 176B].fn
	popq	%rbx	#
	.cfi_def_cfa_offset 40
	xorl	%eax, %eax	# <retval>
	popq	%rbp	#
	.cfi_def_cfa_offset 32
	popq	%r12	#
	.cfi_def_cfa_offset 24
	popq	%r13	#
	.cfi_def_cfa_offset 16
	popq	%r14	#
	.cfi_def_cfa_offset 8
	ret
	.cfi_endproc
.LFE199:
	.size	secp256k1_pubkey_load, .-secp256k1_pubkey_load
	.p2align 4,,15
	.type	secp256k1_ecmult_wnaf.constprop.15, @function
secp256k1_ecmult_wnaf.constprop.15:
.LFB239:
	.cfi_startproc
	pushq	%r15	#
	.cfi_def_cfa_offset 16
	.cfi_offset 15, -16
	pushq	%r14	#
	.cfi_def_cfa_offset 24
	.cfi_offset 14, -24
	xorl	%eax, %eax	# tmp178
	pushq	%r13	#
	.cfi_def_cfa_offset 32
	.cfi_offset 13, -32
	pushq	%r12	#
	.cfi_def_cfa_offset 40
	.cfi_offset 12, -40
	movl	$128, %ecx	#, tmp179
	pushq	%rbp	#
	.cfi_def_cfa_offset 48
	.cfi_offset 6, -48
	pushq	%rbx	#
	.cfi_def_cfa_offset 56
	.cfi_offset 3, -56
	movq	%rdi, %r8	# wnaf, wnaf
	movq	24(%rsi), %rbp	# *a_1(D), *a_1(D)
	movq	(%rsi), %rbx	# *a_1(D), *a_1(D)
	movq	8(%rsi), %r11	# *a_1(D), *a_1(D)
	movq	16(%rsi), %r13	# *a_1(D), *a_1(D)
	rep stosq
	testq	%rbp, %rbp	# *a_1(D)
	movq	%rbx, -40(%rsp)	# *a_1(D), s
	movq	%rbp, -16(%rsp)	# *a_1(D), s
	movq	%r11, -32(%rsp)	# *a_1(D), s
	movq	%r13, -24(%rsp)	# *a_1(D), s
	js	.L238	#,
	movq	%rbx, %rsi	# *a_1(D), pretmp_133
	movl	$1, %ebp	#, sign
.L239:
	movl	$-1, %eax	#, last_set_bit
	xorl	%r9d, %r9d	# carry
	xorl	%edi, %edi	# bit
	movl	$256, %r11d	#, tmp236
	leal	(%rdx,%rax), %r10d	#, tmp237
	movl	$64, %r12d	#, tmp238
	movl	$1, %ebx	#, tmp239
	jmp	.L245	#
	.p2align 4,,10
	.p2align 3
.L240:
	movl	%r11d, %r13d	# tmp236, tmp209
	movl	%edi, %eax	# bit, _11
	subl	%edi, %r13d	# bit, tmp209
	shrl	$6, %eax	#, _11
	cmpl	%edx, %r13d	# w, tmp209
	cmovg	%edx, %r13d	# tmp209,, w, now
	leal	-1(%rdi,%r13), %r14d	#, tmp212
	shrl	$6, %r14d	#, tmp213
	cmpl	%r14d, %eax	# tmp213, _11
	je	.L247	#,
	addl	$1, %eax	#,
	movl	%r12d, %r15d	# tmp238, tmp219
	movq	-40(%rsp,%rax,8), %rax	# s.d, tmp222
	subl	%ecx, %r15d	# _13, tmp219
	movl	%r15d, %ecx	# tmp219, tmp219
	salq	%cl, %rax	# tmp219, tmp221
	orl	%eax, %esi	# tmp221, tmp223
.L247:
	movl	%r13d, %ecx	# now, tmp266
	movq	%rbx, %rax	# tmp239, tmp224
	salq	%cl, %rax	# tmp266, tmp224
	movl	%r10d, %ecx	# tmp237, tmp268
	subl	$1, %eax	#, tmp226
	andl	%eax, %esi	# tmp226, _118
	movslq	%edi, %rax	# bit, bit
	addl	%r9d, %esi	# carry, word
	movl	%esi, %r9d	# word, tmp228
	sarl	%cl, %r9d	# tmp268, tmp228
	movl	%edx, %ecx	# w, tmp270
	andl	$1, %r9d	#, carry
	movl	%r9d, %r15d	# carry, tmp230
	sall	%cl, %r15d	# tmp270, tmp230
	subl	%r15d, %esi	# tmp230, word
	imull	%ebp, %esi	# sign, tmp232
	movl	%esi, (%r8,%rax,4)	# tmp232, *_34
	movl	%edi, %eax	# bit, last_set_bit
	addl	%r13d, %edi	# now, bit
	cmpl	$255, %edi	#, bit
	jg	.L244	#,
.L248:
	movl	%edi, %ecx	# bit, tmp233
	shrl	$6, %ecx	#,
	movq	-40(%rsp,%rcx,8), %rsi	# s.d, pretmp_133
.L245:
	movl	%edi, %ecx	# bit, _13
	andl	$63, %ecx	#, _13
	shrq	%cl, %rsi	# _13, tmp207
	movl	%esi, %r13d	# tmp207, tmp208
	andl	$1, %r13d	#, tmp208
	cmpl	%r9d, %r13d	# carry, tmp208
	jne	.L240	#,
	addl	$1, %edi	#, bit
	cmpl	$255, %edi	#, bit
	jle	.L248	#,
.L244:
	popq	%rbx	#
	.cfi_remember_state
	.cfi_def_cfa_offset 48
	addl	$1, %eax	#, tmp235
	popq	%rbp	#
	.cfi_def_cfa_offset 40
	popq	%r12	#
	.cfi_def_cfa_offset 32
	popq	%r13	#
	.cfi_def_cfa_offset 24
	popq	%r14	#
	.cfi_def_cfa_offset 16
	popq	%r15	#
	.cfi_def_cfa_offset 8
	ret
	.p2align 4,,10
	.p2align 3
.L238:
	.cfi_restore_state
	movq	%rbp, %rax	# *a_1(D), tmp181
	movabsq	$-4624529908474429118, %rcx	#, tmp188
	orq	%rbx, %rax	# *a_1(D), tmp181
	notq	%rbx	# *a_1(D)
	orq	%r11, %rax	# *a_1(D), tmp182
	movq	%rbx, %r9	# *a_1(D), tmp187
	notq	%r11	# *a_1(D)
	orq	%r13, %rax	# *a_1(D), tmp182
	notq	%r13	# *a_1(D)
	setne	%al	#, tmp184
	xorl	%r10d, %r10d	#
	xorl	%ebx, %ebx	#
	movzbl	%al, %eax	# tmp184, tmp184
	negq	%rax	# nonzero
	addq	%r9, %rcx	# tmp187, t
	movq	%r11, %r9	# *a_1(D), tmp190
	adcq	%r10, %rbx	#, t
	movq	%rax, %rsi	# nonzero, pretmp_133
	movabsq	$-4994812053365940165, %r11	#, tmp192
	andq	%rcx, %rsi	# t, pretmp_133
	xorl	%r12d, %r12d	#
	movq	%rbx, %rcx	# t, t
	xorl	%r10d, %r10d	#
	xorl	%ebx, %ebx	# t
	addq	%r11, %r9	# tmp192, tmp191
	adcq	%r12, %r10	#,
	movq	$-2, %r11	#, tmp196
	addq	%r9, %rcx	# tmp191, t
	movq	%r13, %r9	# *a_1(D), tmp194
	adcq	%r10, %rbx	#, t
	xorl	%r15d, %r15d	# t
	xorl	%r10d, %r10d	#
	xorl	%r12d, %r12d	#
	addq	%r11, %r9	# tmp196, tmp195
	adcq	%r12, %r10	#,
	addq	%rbx, %r9	# t, t
	movq	%rsi, -48(%rsp)	# pretmp_133, %sfp
	adcq	%r15, %r10	# t, t
	andq	%rax, %rcx	# nonzero, tmp198
	movq	%rax, %rbx	# nonzero, tmp200
	movq	-48(%rsp), %xmm0	# %sfp, tmp197
	movq	%rcx, -48(%rsp)	# tmp198, %sfp
	movq	%rbp, %rcx	# *a_1(D), *a_1(D)
	movhps	-48(%rsp), %xmm0	# %sfp, tmp197
	andq	%r9, %rbx	# t, tmp200
	notq	%rcx	# *a_1(D)
	movq	%rbx, -48(%rsp)	# tmp200, %sfp
	movl	$-1, %ebp	#, sign
	addq	%r10, %rcx	# t, tmp203
	subq	$1, %rcx	#, t
	andq	%rcx, %rax	# t, tmp206
	movaps	%xmm0, -40(%rsp)	# tmp197, MEM[(long unsigned int *)&s]
	movq	-48(%rsp), %xmm0	# %sfp, tmp199
	movq	%rax, -48(%rsp)	# tmp206, %sfp
	movhps	-48(%rsp), %xmm0	# %sfp, tmp199
	movaps	%xmm0, -24(%rsp)	# tmp199, MEM[(long unsigned int *)&s + 16B]
	jmp	.L239	#
	.cfi_endproc
.LFE239:
	.size	secp256k1_ecmult_wnaf.constprop.15, .-secp256k1_ecmult_wnaf.constprop.15
	.p2align 4,,15
	.type	secp256k1_rfc6979_hmac_sha256_generate.constprop.12, @function
secp256k1_rfc6979_hmac_sha256_generate.constprop.12:
.LFB242:
	.cfi_startproc
	pushq	%r15	#
	.cfi_def_cfa_offset 16
	.cfi_offset 15, -16
	pushq	%r14	#
	.cfi_def_cfa_offset 24
	.cfi_offset 14, -24
	pushq	%r13	#
	.cfi_def_cfa_offset 32
	.cfi_offset 13, -32
	pushq	%r12	#
	.cfi_def_cfa_offset 40
	.cfi_offset 12, -40
	leaq	32(%rdi), %r13	#, pretmp_13
	pushq	%rbp	#
	.cfi_def_cfa_offset 48
	.cfi_offset 6, -48
	pushq	%rbx	#
	.cfi_def_cfa_offset 56
	.cfi_offset 3, -56
	movq	%rdi, %rbx	# rng, rng
	subq	$296, %rsp	#,
	.cfi_def_cfa_offset 352
	movl	64(%rdi), %eax	# rng_1(D)->retry,
	movq	%rsi, 8(%rsp)	# out, %sfp
	leaq	80(%rsp), %r14	#, tmp375
	leaq	16(%rsp), %r12	#, tmp376
	testl	%eax, %eax	#
	jne	.L311	#,
.L251:
	movq	0(%r13), %rax	# MEM[(void *)prephitmp_75], MEM[(void *)prephitmp_75]
	movq	$0, 48(%rsp)	#, MEM[(void *)&rkey + 32B]
	leaq	104(%r14), %rdi	#, tmp178
	movdqa	.LC5(%rip), %xmm0	#, tmp160
	movq	$64, 280(%rsp)	#, MEM[(struct secp256k1_sha256_t *)&hmac + 104B].bytes
	movq	%rax, 16(%rsp)	# MEM[(void *)prephitmp_75], MEM[(void *)&rkey]
	movq	8(%r13), %rax	# MEM[(void *)prephitmp_75], MEM[(void *)prephitmp_75]
	movdqa	.LC3(%rip), %xmm2	#, tmp157
	movq	%rax, 24(%rsp)	# MEM[(void *)prephitmp_75], MEM[(void *)&rkey]
	movq	16(%r13), %rax	# MEM[(void *)prephitmp_75], MEM[(void *)prephitmp_75]
	movdqa	.LC4(%rip), %xmm1	#, tmp158
	movq	%rax, 32(%rsp)	# MEM[(void *)prephitmp_75], MEM[(void *)&rkey]
	movq	24(%r13), %rax	# MEM[(void *)prephitmp_75], MEM[(void *)prephitmp_75]
	leaq	32(%r14), %r13	#, tmp198
	movups	%xmm2, 184(%rsp)	# tmp157, MEM[(unsigned int *)&hmac + 104B]
	movups	%xmm1, 200(%rsp)	# tmp158, MEM[(unsigned int *)&hmac + 120B]
	movq	%rax, 40(%rsp)	# MEM[(void *)prephitmp_75], MEM[(void *)&rkey]
	movq	$0, 40(%r12)	#, MEM[(void *)&rkey + 32B]
	movq	$0, 48(%r12)	#, MEM[(void *)&rkey + 32B]
	movq	$0, 56(%r12)	#, MEM[(void *)&rkey + 32B]
	movdqa	16(%rsp), %xmm3	# MEM[(unsigned char[64] *)&rkey], vect__60.504
	pxor	%xmm0, %xmm3	# tmp160, vect__60.504
	movq	%xmm3, %rsi	#, tmp377
	movaps	%xmm3, 16(%rsp)	# vect__60.504, MEM[(unsigned char[64] *)&rkey]
	movq	%rsi, 216(%rsp)	# tmp377, MEM[(char * {ref-all})&hmac + 136B]
	movq	24(%rsp), %rsi	# MEM[(char * {ref-all})&rkey], MEM[(char * {ref-all})&rkey]
	movdqa	32(%rsp), %xmm3	# MEM[(unsigned char[64] *)&rkey + 16B], vect__60.504
	movq	%rsi, 224(%rsp)	# MEM[(char * {ref-all})&rkey], MEM[(char * {ref-all})&hmac + 136B]
	leaq	136(%r14), %rsi	#, tmp176
	pxor	%xmm0, %xmm3	# tmp160, vect__60.504
	movq	%xmm3, %rcx	#, tmp379
	movaps	%xmm3, 32(%rsp)	# vect__60.504, MEM[(unsigned char[64] *)&rkey + 16B]
	movq	%rcx, 232(%rsp)	# tmp379, MEM[(char * {ref-all})&hmac + 136B]
	movq	40(%rsp), %rcx	# MEM[(char * {ref-all})&rkey], MEM[(char * {ref-all})&rkey]
	movdqa	48(%rsp), %xmm3	# MEM[(unsigned char[64] *)&rkey + 32B], vect__60.504
	movq	%rcx, 240(%rsp)	# MEM[(char * {ref-all})&rkey], MEM[(char * {ref-all})&hmac + 136B]
	pxor	%xmm0, %xmm3	# tmp160, vect__60.504
	pxor	64(%rsp), %xmm0	# MEM[(unsigned char[64] *)&rkey + 48B], vect__60.504
	movaps	%xmm3, 48(%rsp)	# vect__60.504, MEM[(unsigned char[64] *)&rkey + 32B]
	movaps	%xmm0, 64(%rsp)	# vect__60.504, MEM[(unsigned char[64] *)&rkey + 48B]
	movq	%xmm3, 248(%rsp)	# tmp381, MEM[(char * {ref-all})&hmac + 136B]
	movq	%xmm0, 264(%rsp)	# tmp383, MEM[(char * {ref-all})&hmac + 136B]
	movq	56(%rsp), %rdx	# MEM[(char * {ref-all})&rkey], MEM[(char * {ref-all})&rkey]
	movq	72(%rsp), %rax	# MEM[(char * {ref-all})&rkey], MEM[(char * {ref-all})&rkey]
	movq	%rdx, 256(%rsp)	# MEM[(char * {ref-all})&rkey], MEM[(char * {ref-all})&hmac + 136B]
	movq	%rax, 272(%rsp)	# MEM[(char * {ref-all})&rkey], MEM[(char * {ref-all})&hmac + 136B]
	call	secp256k1_sha256_transform	#
	movdqa	.LC6(%rip), %xmm0	#, tmp182
	movq	%r14, %rdi	# tmp375,
	movq	$64, 176(%rsp)	#, MEM[(struct secp256k1_sha256_t *)&hmac].bytes
	movaps	%xmm1, 96(%rsp)	# tmp158, MEM[(unsigned int *)&hmac + 16B]
	movaps	%xmm2, 80(%rsp)	# tmp157, MEM[(unsigned int *)&hmac]
	movdqa	16(%rsp), %xmm1	# MEM[(unsigned char[64] *)&rkey], vect__65.498
	pxor	%xmm0, %xmm1	# tmp182, vect__65.498
	movq	%xmm1, %rsi	#, tmp385
	movaps	%xmm1, 16(%rsp)	# vect__65.498, MEM[(unsigned char[64] *)&rkey]
	movq	%rsi, 112(%rsp)	# tmp385, MEM[(char * {ref-all})&hmac + 32B]
	movq	24(%rsp), %rsi	# MEM[(char * {ref-all})&rkey], MEM[(char * {ref-all})&rkey]
	movdqa	32(%rsp), %xmm1	# MEM[(unsigned char[64] *)&rkey + 16B], vect__65.498
	movq	%rsi, 120(%rsp)	# MEM[(char * {ref-all})&rkey], MEM[(char * {ref-all})&hmac + 32B]
	movq	%r13, %rsi	# tmp198,
	pxor	%xmm0, %xmm1	# tmp182, vect__65.498
	movq	%xmm1, %rcx	#, tmp387
	movaps	%xmm1, 32(%rsp)	# vect__65.498, MEM[(unsigned char[64] *)&rkey + 16B]
	movq	%rcx, 128(%rsp)	# tmp387, MEM[(char * {ref-all})&hmac + 32B]
	movq	40(%rsp), %rcx	# MEM[(char * {ref-all})&rkey], MEM[(char * {ref-all})&rkey]
	movdqa	48(%rsp), %xmm1	# MEM[(unsigned char[64] *)&rkey + 32B], vect__65.498
	movq	%rcx, 136(%rsp)	# MEM[(char * {ref-all})&rkey], MEM[(char * {ref-all})&hmac + 32B]
	pxor	%xmm0, %xmm1	# tmp182, vect__65.498
	pxor	64(%rsp), %xmm0	# MEM[(unsigned char[64] *)&rkey + 48B], vect__65.498
	movaps	%xmm1, 48(%rsp)	# vect__65.498, MEM[(unsigned char[64] *)&rkey + 32B]
	movq	56(%rsp), %rdx	# MEM[(char * {ref-all})&rkey], MEM[(char * {ref-all})&rkey]
	movq	%xmm1, 144(%rsp)	# tmp389, MEM[(char * {ref-all})&hmac + 32B]
	movaps	%xmm0, 64(%rsp)	# vect__65.498, MEM[(unsigned char[64] *)&rkey + 48B]
	movq	72(%rsp), %rax	# MEM[(char * {ref-all})&rkey], MEM[(char * {ref-all})&rkey]
	movq	%xmm0, 160(%rsp)	# tmp391, MEM[(char * {ref-all})&hmac + 32B]
	movq	%rdx, 152(%rsp)	# MEM[(char * {ref-all})&rkey], MEM[(char * {ref-all})&hmac + 32B]
	movq	%rax, 168(%rsp)	# MEM[(char * {ref-all})&rkey], MEM[(char * {ref-all})&hmac + 32B]
	call	secp256k1_sha256_transform	#
	movl	$64, %esi	#,
	movq	%r12, %rdi	# tmp376,
	call	explicit_bzero	#
	movq	176(%rsp), %rdx	# MEM[(struct secp256k1_sha256_t *)&hmac].bytes, _40
	movq	%rdx, %rbp	# _40, bufsize
	addq	$32, %rdx	#, tmp201
	andl	$63, %ebp	#, bufsize
	movq	%rdx, 176(%rsp)	# tmp201, MEM[(struct secp256k1_sha256_t *)&hmac].bytes
	leaq	32(%rbp), %rdx	#, tmp202
	cmpq	$63, %rdx	#, tmp202
	jbe	.L312	#,
	movl	$64, %r15d	#, tmp205
	leaq	0(%r13,%rbp), %rsi	#, tmp208
	subq	%rbp, %r15	# bufsize, _44
	cmpl	$8, %r15d	#, _44
	jnb	.L254	#,
	testb	$4, %r15b	#, _44
	jne	.L313	#,
	testl	%r15d, %r15d	# _44
	je	.L255	#,
	movzbl	(%rbx), %edx	#* rng, tmp221
	testb	$2, %r15b	#, _44
	movb	%dl, (%rsi)	# tmp221,
	jne	.L314	#,
.L255:
	leaq	32(%r14), %r13	#, tmp245
	movq	%r14, %rdi	# tmp375,
	addq	%rbx, %r15	# rng, data
	movq	%r13, %rsi	# tmp245,
	call	secp256k1_sha256_transform	#
	movq	%rbp, %rax	# bufsize, bufsize
	subq	$32, %rax	#, bufsize
	jne	.L253	#,
.L260:
	movq	%r12, %rsi	# tmp376,
	movq	%r14, %rdi	# tmp375,
	call	secp256k1_sha256_finalize	#
	movq	280(%rsp), %rax	# MEM[(struct secp256k1_sha256_t *)&hmac + 104B].bytes, _97
	movq	%rax, %r15	# _97, bufsize
	addq	$32, %rax	#, tmp284
	andl	$63, %r15d	#, bufsize
	movq	%rax, 280(%rsp)	# tmp284, MEM[(struct secp256k1_sha256_t *)&hmac + 104B].bytes
	leaq	32(%r15), %rax	#, tmp285
	cmpq	$63, %rax	#, tmp285
	jbe	.L315	#,
	movl	$64, %edx	#, tmp288
	leaq	136(%r14,%r15), %rax	#, tmp291
	subq	%r15, %rdx	# bufsize, _101
	cmpl	$8, %edx	#, _101
	jnb	.L269	#,
	testb	$4, %dl	#, _101
	jne	.L316	#,
	testl	%edx, %edx	# _101
	je	.L270	#,
	movzbl	(%r12), %ecx	#, tmp305
	testb	$2, %dl	#, _101
	movb	%cl, (%rax)	# tmp305,
	jne	.L317	#,
.L270:
	leaq	136(%r14), %rbp	#, tmp330
	leaq	104(%r14), %rdi	#, tmp332
	leaq	(%r12,%rdx), %r13	#, data
	movq	%rbp, %rsi	# tmp330,
	call	secp256k1_sha256_transform	#
	movq	%r15, %rax	# bufsize, bufsize
	subq	$32, %rax	#, bufsize
	jne	.L318	#,
.L275:
	movq	%r12, %rdi	# tmp376,
	movl	$32, %esi	#,
	call	explicit_bzero	#
	leaq	104(%r14), %rdi	#, tmp370
	movq	%rbx, %rsi	# rng,
	call	secp256k1_sha256_finalize	#
	movq	(%rbx), %rax	# MEM[(void *)prephitmp_49], MEM[(void *)prephitmp_49]
	movq	8(%rsp), %rdi	# %sfp, out
	movq	%rax, (%rdi)	# MEM[(void *)prephitmp_49], MEM[(void *)out_15(D)]
	movq	8(%rbx), %rax	# MEM[(void *)prephitmp_49], MEM[(void *)prephitmp_49]
	movq	%rax, 8(%rdi)	# MEM[(void *)prephitmp_49], MEM[(void *)out_15(D)]
	movq	16(%rbx), %rax	# MEM[(void *)prephitmp_49], MEM[(void *)prephitmp_49]
	movq	%rax, 16(%rdi)	# MEM[(void *)prephitmp_49], MEM[(void *)out_15(D)]
	movq	24(%rbx), %rax	# MEM[(void *)prephitmp_49], MEM[(void *)prephitmp_49]
	movq	%rax, 24(%rdi)	# MEM[(void *)prephitmp_49], MEM[(void *)out_15(D)]
	movl	$1, 64(%rbx)	#, rng_1(D)->retry
	addq	$296, %rsp	#,
	.cfi_remember_state
	.cfi_def_cfa_offset 56
	popq	%rbx	#
	.cfi_def_cfa_offset 48
	popq	%rbp	#
	.cfi_def_cfa_offset 40
	popq	%r12	#
	.cfi_def_cfa_offset 32
	popq	%r13	#
	.cfi_def_cfa_offset 24
	popq	%r14	#
	.cfi_def_cfa_offset 16
	popq	%r15	#
	.cfi_def_cfa_offset 8
	ret
	.p2align 4,,10
	.p2align 3
.L269:
	.cfi_restore_state
	movq	(%r12), %rcx	#, tmp314
	movq	%r12, %r8	# tmp376, tmp295
	movq	%rcx, (%rax)	# tmp314,
	movl	%edx, %ecx	# _101, _101
	movq	-8(%r12,%rcx), %rsi	#, tmp321
	movq	%rsi, -8(%rax,%rcx)	# tmp321,
	leaq	8(%rax), %rcx	#, tmp322
	andq	$-8, %rcx	#, tmp322
	subq	%rcx, %rax	# tmp322, tmp294
	subq	%rax, %r8	# tmp294, tmp295
	addl	%edx, %eax	# _101, _101
	andl	$-8, %eax	#, _101
	cmpl	$8, %eax	#, _101
	jb	.L270	#,
	andl	$-8, %eax	#, tmp324
	xorl	%esi, %esi	# tmp323
.L273:
	movl	%esi, %edi	# tmp323, tmp325
	addl	$8, %esi	#, tmp323
	movq	(%r8,%rdi), %r9	#, tmp326
	cmpl	%eax, %esi	# tmp324, tmp323
	movq	%r9, (%rcx,%rdi)	# tmp326,
	jb	.L273	#,
	jmp	.L270	#
	.p2align 4,,10
	.p2align 3
.L254:
	movq	(%rbx), %rdx	#* rng, tmp230
	movq	%rbx, %r8	# rng, prephitmp_49
	movq	%rdx, (%rsi)	# tmp230,
	movl	%r15d, %edx	# _44, _44
	movq	-8(%rbx,%rdx), %rcx	#, tmp237
	movq	%rcx, -8(%rsi,%rdx)	# tmp237,
	leaq	8(%rsi), %rdx	#, tmp238
	andq	$-8, %rdx	#, tmp238
	subq	%rdx, %rsi	# tmp238, tmp210
	subq	%rsi, %r8	# tmp210, prephitmp_49
	addl	%r15d, %esi	# _44, _44
	andl	$-8, %esi	#, _44
	cmpl	$8, %esi	#, _44
	jb	.L255	#,
	andl	$-8, %esi	#, tmp240
	xorl	%ecx, %ecx	# tmp239
.L258:
	movl	%ecx, %edi	# tmp239, tmp241
	addl	$8, %ecx	#, tmp239
	movq	(%r8,%rdi), %r9	#, tmp242
	cmpl	%esi, %ecx	# tmp240, tmp239
	movq	%r9, (%rdx,%rdi)	# tmp242,
	jb	.L258	#,
	jmp	.L255	#
	.p2align 4,,10
	.p2align 3
.L318:
	movq	%rbp, %rdx	# tmp330, _81
.L268:
	cmpl	$8, %eax	#, len
	movl	%eax, %ecx	# len,
	jnb	.L276	#,
	testb	$4, %al	#, len
	jne	.L319	#,
	testl	%ecx, %ecx	# len
	je	.L275	#,
	movzbl	0(%r13), %eax	#* data, tmp345
	testb	$2, %cl	#, len
	movb	%al, (%rdx)	# tmp345,* _81
	je	.L275	#,
	movzwl	-2(%r13,%rcx), %eax	#, tmp353
	movw	%ax, -2(%rdx,%rcx)	# tmp353,
	jmp	.L275	#
	.p2align 4,,10
	.p2align 3
.L312:
	addq	%rbp, %r13	# bufsize, prephitmp_58
	movq	%rbx, %r15	# rng, data
	movl	$32, %eax	#, len
.L253:
	cmpl	$8, %eax	#, len
	movl	%eax, %edx	# len,
	jnb	.L261	#,
	testb	$4, %al	#, len
	jne	.L320	#,
	testl	%edx, %edx	# len
	je	.L260	#,
	movzbl	(%r15), %eax	#* data, tmp259
	testb	$2, %dl	#, len
	movb	%al, 0(%r13)	# tmp259,* prephitmp_58
	je	.L260	#,
	movzwl	-2(%r15,%rdx), %eax	#, tmp267
	movw	%ax, -2(%r13,%rdx)	# tmp267,
	jmp	.L260	#
	.p2align 4,,10
	.p2align 3
.L316:
	movl	(%r12), %ecx	#, tmp297
	movl	%ecx, (%rax)	# tmp297,
	movl	%edx, %ecx	# _101, _101
	movl	-4(%r12,%rcx), %esi	#, tmp304
	movl	%esi, -4(%rax,%rcx)	# tmp304,
	jmp	.L270	#
	.p2align 4,,10
	.p2align 3
.L313:
	movl	(%rbx), %edx	#* rng, tmp213
	movl	%edx, (%rsi)	# tmp213,
	movl	%r15d, %edx	# _44, _44
	movl	-4(%rbx,%rdx), %ecx	#, tmp220
	movl	%ecx, -4(%rsi,%rdx)	# tmp220,
	jmp	.L255	#
	.p2align 4,,10
	.p2align 3
.L317:
	movl	%edx, %ecx	# _101, _101
	movzwl	-2(%r12,%rcx), %esi	#, tmp313
	movw	%si, -2(%rax,%rcx)	# tmp313,
	jmp	.L270	#
	.p2align 4,,10
	.p2align 3
.L314:
	movl	%r15d, %edx	# _44, _44
	movzwl	-2(%rbx,%rdx), %ecx	#, tmp229
	movw	%cx, -2(%rsi,%rdx)	# tmp229,
	jmp	.L255	#
	.p2align 4,,10
	.p2align 3
.L276:
	movq	0(%r13), %rcx	#* data, tmp354
	movq	%rcx, (%rdx)	# tmp354,* _81
	movl	%eax, %ecx	# len, len
	movq	-8(%r13,%rcx), %rsi	#, tmp361
	movq	%rsi, -8(%rdx,%rcx)	# tmp361,
	leaq	8(%rdx), %rsi	#, tmp362
	andq	$-8, %rsi	#, tmp362
	subq	%rsi, %rdx	# tmp362, _81
	leal	(%rax,%rdx), %ecx	#, len
	subq	%rdx, %r13	# _81, data
	andl	$-8, %ecx	#, len
	cmpl	$8, %ecx	#, len
	jb	.L275	#,
	andl	$-8, %ecx	#, len
	xorl	%eax, %eax	# tmp363
	movl	%ecx, %edx	# len, tmp364
.L280:
	movl	%eax, %ecx	# tmp363, tmp365
	addl	$8, %eax	#, tmp363
	movq	0(%r13,%rcx), %rdi	#, tmp366
	cmpl	%edx, %eax	# tmp364, tmp363
	movq	%rdi, (%rsi,%rcx)	# tmp366,
	jb	.L280	#,
	jmp	.L275	#
	.p2align 4,,10
	.p2align 3
.L261:
	movq	(%r15), %rdx	#* data, tmp268
	movq	%rdx, 0(%r13)	# tmp268,* prephitmp_58
	movl	%eax, %edx	# len, len
	movq	-8(%r15,%rdx), %rcx	#, tmp275
	movq	%rcx, -8(%r13,%rdx)	# tmp275,
	leaq	8(%r13), %rcx	#, tmp276
	andq	$-8, %rcx	#, tmp276
	subq	%rcx, %r13	# tmp276, prephitmp_58
	leal	(%rax,%r13), %edx	#, len
	subq	%r13, %r15	# prephitmp_58, data
	andl	$-8, %edx	#, len
	cmpl	$8, %edx	#, len
	jb	.L260	#,
	andl	$-8, %edx	#, len
	xorl	%eax, %eax	# tmp277
	movl	%edx, %r13d	# len, tmp278
.L265:
	movl	%eax, %edx	# tmp277, tmp279
	addl	$8, %eax	#, tmp277
	movq	(%r15,%rdx), %rsi	#, tmp280
	cmpl	%r13d, %eax	# tmp278, tmp277
	movq	%rsi, (%rcx,%rdx)	# tmp280,
	jb	.L265	#,
	jmp	.L260	#
.L315:
	leaq	136(%r14,%r15), %rdx	#, _81
	movl	$32, %eax	#, len
	movq	%r12, %r13	# tmp376, data
	jmp	.L268	#
.L311:
	movq	%r13, %rsi	# pretmp_13,
	movq	%r14, %rdi	# tmp375,
	leaq	16(%rsp), %r12	#, tmp376
	call	secp256k1_hmac_sha256_initialize.constprop.13	#
	movq	%rbx, %rsi	# rng,
	movq	%r14, %rdi	# tmp375,
	movl	$32, %edx	#,
	call	secp256k1_sha256_write	#
	leaq	104(%r14), %r15	#, tmp135
	movl	$1, %edx	#,
	movq	%r14, %rdi	# tmp375,
	movl	$zero.6229, %esi	#,
	call	secp256k1_sha256_write	#
	movq	%r12, %rsi	# tmp376,
	movq	%r14, %rdi	# tmp375,
	call	secp256k1_sha256_finalize	#
	movl	$32, %edx	#,
	movq	%r12, %rsi	# tmp376,
	movq	%r15, %rdi	# tmp135,
	call	secp256k1_sha256_write	#
	movq	%r12, %rdi	# tmp376,
	movl	$32, %esi	#,
	call	explicit_bzero	#
	movq	%r13, %rsi	# pretmp_13,
	movq	%r15, %rdi	# tmp135,
	call	secp256k1_sha256_finalize	#
	movq	%r13, %rsi	# pretmp_13,
	movq	%r14, %rdi	# tmp375,
	call	secp256k1_hmac_sha256_initialize.constprop.13	#
	movl	$32, %edx	#,
	movq	%rbx, %rsi	# rng,
	movq	%r14, %rdi	# tmp375,
	call	secp256k1_sha256_write	#
	movq	%r12, %rsi	# tmp376,
	movq	%r14, %rdi	# tmp375,
	call	secp256k1_sha256_finalize	#
	movl	$32, %edx	#,
	movq	%r12, %rsi	# tmp376,
	movq	%r15, %rdi	# tmp135,
	call	secp256k1_sha256_write	#
	movq	%r12, %rdi	# tmp376,
	movl	$32, %esi	#,
	call	explicit_bzero	#
	movq	%rbx, %rsi	# rng,
	movq	%r15, %rdi	# tmp135,
	call	secp256k1_sha256_finalize	#
	jmp	.L251	#
.L320:
	movl	(%r15), %eax	#* data, tmp251
	movl	%eax, 0(%r13)	# tmp251,* prephitmp_58
	movl	-4(%r15,%rdx), %eax	#, tmp258
	movl	%eax, -4(%r13,%rdx)	# tmp258,
	jmp	.L260	#
.L319:
	movl	0(%r13), %eax	#* data, tmp337
	movl	%eax, (%rdx)	# tmp337,* _81
	movl	-4(%r13,%rcx), %eax	#, tmp344
	movl	%eax, -4(%rdx,%rcx)	# tmp344,
	jmp	.L275	#
	.cfi_endproc
.LFE242:
	.size	secp256k1_rfc6979_hmac_sha256_generate.constprop.12, .-secp256k1_rfc6979_hmac_sha256_generate.constprop.12
	.p2align 4,,15
	.type	secp256k1_gej_eq_x_var, @function
secp256k1_gej_eq_x_var:
.LFB136:
	.cfi_startproc
	pushq	%r12	#
	.cfi_def_cfa_offset 16
	.cfi_offset 12, -16
	pushq	%rbp	#
	.cfi_def_cfa_offset 24
	.cfi_offset 6, -24
	movq	%rdi, %rbp	# x, x
	pushq	%rbx	#
	.cfi_def_cfa_offset 32
	.cfi_offset 3, -32
	movq	%rsi, %rbx	# a, a
	addq	$80, %rsi	#, tmp158
	movabsq	$4294968273, %r12	#, tmp164
	subq	$48, %rsp	#,
	.cfi_def_cfa_offset 80
	movq	%rsp, %rdi	#,
	call	secp256k1_fe_sqr_inner	#
	movq	%rbp, %rdx	# x,
	movq	%rsp, %rsi	#,
	movq	%rsp, %rdi	#,
	call	secp256k1_fe_mul_inner	#
	movq	32(%rbx), %rdi	# MEM[(const struct secp256k1_gej *)a_2(D) + 32B], r2$n$4
	movabsq	$1125899906842620, %rcx	#, tmp173
	subq	32(%rsp), %rcx	# r.n, tmp173
	movq	8(%rsp), %r10	# r.n, _15
	movq	16(%rsp), %rbp	# r.n, _17
	movq	%rdi, %rax	# r2$n$4, x
	shrq	$48, %rax	#, x
	movq	%rcx, %rsi	# tmp173, tmp172
	movabsq	$281474976710655, %rcx	#, tmp175
	imulq	%r12, %rax	# tmp164, tmp163
	andq	%rdi, %rcx	# r2$n$4, t4
	movabsq	$18014381329608892, %rdi	#, tmp179
	addq	(%rbx), %rax	# MEM[(const struct secp256k1_gej *)a_2(D)], t0
	addq	%rsi, %rcx	# tmp172, tmp176
	subq	(%rsp), %rdi	# r.n, tmp178
	movabsq	$4503599627370495, %rsi	#, tmp181
	movq	%rax, %r11	# t0, tmp166
	andq	%rsi, %rax	# tmp181, t0
	shrq	$52, %r11	#, tmp166
	addq	8(%rbx), %r11	# MEM[(const struct secp256k1_gej *)a_2(D) + 8B], t1
	addq	%rax, %rdi	# t0, tmp182
	movq	%r11, %r9	# t1, tmp168
	shrq	$52, %r9	#, tmp168
	addq	16(%rbx), %r9	# MEM[(const struct secp256k1_gej *)a_2(D) + 16B], t2
	movq	%r9, %r8	# t2, tmp170
	shrq	$52, %r8	#, tmp170
	addq	24(%rbx), %r8	# MEM[(const struct secp256k1_gej *)a_2(D) + 24B], t3
	movq	24(%rsp), %rbx	# r.n, _19
	movq	%r8, %rdx	# t3, tmp177
	shrq	$52, %rdx	#, tmp177
	addq	%rdx, %rcx	# tmp177, _32
	movq	%rcx, %rdx	# _32, x
	shrq	$48, %rdx	#, x
	imulq	%rdx, %r12	# x, tmp184
	leaq	(%rdi,%r12), %rdx	#, t0
	movq	%rsi, %rdi	# tmp181, tmp181
	andq	%rdx, %rdi	# t0, tmp181
	je	.L325	#,
	movabsq	$4503595332402223, %rsi	#, tmp190
	xorl	%eax, %eax	# _92
	cmpq	%rsi, %rdi	# tmp190, z0
	je	.L325	#,
	addq	$48, %rsp	#,
	.cfi_remember_state
	.cfi_def_cfa_offset 32
	movzbl	%al, %eax	# _92, _92
	popq	%rbx	#
	.cfi_def_cfa_offset 24
	popq	%rbp	#
	.cfi_def_cfa_offset 16
	popq	%r12	#
	.cfi_def_cfa_offset 8
	ret
	.p2align 4,,10
	.p2align 3
.L325:
	.cfi_restore_state
	movabsq	$18014398509481980, %rsi	#, tmp194
	movabsq	$281474976710655, %rax	#, tmp192
	andq	%rax, %rcx	# tmp192, t4
	movq	%rsi, %rax	# tmp194, tmp193
	subq	%r10, %rax	# _15, tmp193
	movabsq	$4503599627370495, %r10	#, tmp196
	andq	%r10, %r11	# tmp196, t1
	andq	%r10, %r9	# tmp196, t2
	andq	%r10, %r8	# tmp196, t3
	addq	%rax, %r11	# tmp193, tmp197
	movq	%rdx, %rax	# t0, tmp198
	shrq	$52, %rax	#, tmp198
	addq	%rax, %r11	# tmp198, t1
	movq	%rsi, %rax	# tmp194, tmp199
	subq	%rbx, %rsi	# _19, tmp205
	subq	%rbp, %rax	# _17, tmp199
	orq	%r11, %rdx	# t1, tmp212
	addq	%rax, %r9	# tmp199, tmp203
	movq	%r11, %rax	# t1, tmp204
	shrq	$52, %rax	#, tmp204
	addq	%rax, %r9	# tmp204, t2
	leaq	(%rsi,%r8), %rax	#, tmp209
	movq	%r9, %rsi	# t2, tmp210
	orq	%r9, %rdx	# t2, tmp213
	shrq	$52, %rsi	#, tmp210
	addq	%rsi, %rax	# tmp210, t3
	movq	%rax, %rsi	# t3, tmp211
	orq	%rax, %rdx	# t3, tmp214
	shrq	$52, %rsi	#, tmp211
	andq	%r10, %rdx	# tmp196, z0
	addq	%rsi, %rcx	# tmp211, t4
	movabsq	$4294968272, %rsi	#, tmp217
	xorq	%rdi, %rsi	# z0, z1
	andq	%r11, %rsi	# t1, tmp218
	andq	%r9, %rsi	# t2, _29
	andq	%rsi, %rax	# _29, z1
	movabsq	$4222124650659840, %rsi	#, tmp220
	xorq	%rcx, %rsi	# t4, tmp219
	andq	%rsi, %rax	# tmp219, z1
	cmpq	%r10, %rax	# tmp196, z1
	sete	%al	#, tmp224
	orq	%rdx, %rcx	# z0, t4
	sete	%dl	#, tmp227
	addq	$48, %rsp	#,
